./exesections/4021e0-.init: 4021e0
**********************************************************
  4021f9:	0f 1f 40 cc                     rlp		<=
  4021fd:	e8 4b 3d 00 00                  call 0x405f4d
  402202:	0f 1f 40 cc                     rlp		<=
  402206:	e8 70 5f 01 00                  call 0x41817b
  40220b:	0f 1f 40 cc                     rlp		<=
  40220f:	48 83 c4 08                     add rsp, 0x8
  402213:	c3                              ret

./exesections/402220-.plt: 402220
**********************************************************
  402240:	0f 1f 40 aa                     clp		<=
  402244:	ff 25 8e ef 21 00               jmp qword [rip+0x21ef8e]

  40224a:	0f 1f 40 bb                     jlp		<=
  40224e:	68 00 00 00 00                  push 0x0
  402253:	e9 c8 ff ff ff                  jmp 0x402220

  402260:	0f 1f 40 aa                     clp		<=
  402264:	ff 25 76 ef 21 00               jmp qword [rip+0x21ef76]

  40226a:	0f 1f 40 bb                     jlp		<=
  40226e:	68 01 00 00 00                  push 0x1
  402273:	e9 a8 ff ff ff                  jmp 0x402220

  402280:	0f 1f 40 aa                     clp		<=
  402284:	ff 25 5e ef 21 00               jmp qword [rip+0x21ef5e]

  40228a:	0f 1f 40 bb                     jlp		<=
  40228e:	68 02 00 00 00                  push 0x2
  402293:	e9 88 ff ff ff                  jmp 0x402220

  4022a0:	0f 1f 40 aa                     clp		<=
  4022a4:	ff 25 46 ef 21 00               jmp qword [rip+0x21ef46]

  4022aa:	0f 1f 40 bb                     jlp		<=
  4022ae:	68 03 00 00 00                  push 0x3
  4022b3:	e9 68 ff ff ff                  jmp 0x402220

  4022c0:	0f 1f 40 aa                     clp		<=
  4022c4:	ff 25 2e ef 21 00               jmp qword [rip+0x21ef2e]

  4022ca:	0f 1f 40 bb                     jlp		<=
  4022ce:	68 04 00 00 00                  push 0x4
  4022d3:	e9 48 ff ff ff                  jmp 0x402220

  4022e0:	0f 1f 40 aa                     clp		<=
  4022e4:	ff 25 16 ef 21 00               jmp qword [rip+0x21ef16]

  4022ea:	0f 1f 40 bb                     jlp		<=
  4022ee:	68 05 00 00 00                  push 0x5
  4022f3:	e9 28 ff ff ff                  jmp 0x402220

  402300:	0f 1f 40 aa                     clp		<=
  402304:	ff 25 fe ee 21 00               jmp qword [rip+0x21eefe]

  40230a:	0f 1f 40 bb                     jlp		<=
  40230e:	68 06 00 00 00                  push 0x6
  402313:	e9 08 ff ff ff                  jmp 0x402220

  402320:	0f 1f 40 aa                     clp		<=
  402324:	ff 25 e6 ee 21 00               jmp qword [rip+0x21eee6]

  40232a:	0f 1f 40 bb                     jlp		<=
  40232e:	68 07 00 00 00                  push 0x7
  402333:	e9 e8 fe ff ff                  jmp 0x402220

  402340:	0f 1f 40 aa                     clp		<=
  402344:	ff 25 ce ee 21 00               jmp qword [rip+0x21eece]

  40234a:	0f 1f 40 bb                     jlp		<=
  40234e:	68 08 00 00 00                  push 0x8
  402353:	e9 c8 fe ff ff                  jmp 0x402220

  402360:	0f 1f 40 aa                     clp		<=
  402364:	ff 25 b6 ee 21 00               jmp qword [rip+0x21eeb6]

  40236a:	0f 1f 40 bb                     jlp		<=
  40236e:	68 09 00 00 00                  push 0x9
  402373:	e9 a8 fe ff ff                  jmp 0x402220

  402380:	0f 1f 40 aa                     clp		<=
  402384:	ff 25 9e ee 21 00               jmp qword [rip+0x21ee9e]

  40238a:	0f 1f 40 bb                     jlp		<=
  40238e:	68 0a 00 00 00                  push 0xa
  402393:	e9 88 fe ff ff                  jmp 0x402220

  4023a0:	0f 1f 40 aa                     clp		<=
  4023a4:	ff 25 86 ee 21 00               jmp qword [rip+0x21ee86]

  4023aa:	0f 1f 40 bb                     jlp		<=
  4023ae:	68 0b 00 00 00                  push 0xb
  4023b3:	e9 68 fe ff ff                  jmp 0x402220

  4023c0:	0f 1f 40 aa                     clp		<=
  4023c4:	ff 25 6e ee 21 00               jmp qword [rip+0x21ee6e]

  4023ca:	0f 1f 40 bb                     jlp		<=
  4023ce:	68 0c 00 00 00                  push 0xc
  4023d3:	e9 48 fe ff ff                  jmp 0x402220

  4023e0:	0f 1f 40 aa                     clp		<=
  4023e4:	ff 25 56 ee 21 00               jmp qword [rip+0x21ee56]

  4023ea:	0f 1f 40 bb                     jlp		<=
  4023ee:	68 0d 00 00 00                  push 0xd
  4023f3:	e9 28 fe ff ff                  jmp 0x402220

  402400:	0f 1f 40 aa                     clp		<=
  402404:	ff 25 3e ee 21 00               jmp qword [rip+0x21ee3e]

  40240a:	0f 1f 40 bb                     jlp		<=
  40240e:	68 0e 00 00 00                  push 0xe
  402413:	e9 08 fe ff ff                  jmp 0x402220

  402420:	0f 1f 40 aa                     clp		<=
  402424:	ff 25 26 ee 21 00               jmp qword [rip+0x21ee26]

  40242a:	0f 1f 40 bb                     jlp		<=
  40242e:	68 0f 00 00 00                  push 0xf
  402433:	e9 e8 fd ff ff                  jmp 0x402220

  402440:	0f 1f 40 aa                     clp		<=
  402444:	ff 25 0e ee 21 00               jmp qword [rip+0x21ee0e]

  40244a:	0f 1f 40 bb                     jlp		<=
  40244e:	68 10 00 00 00                  push 0x10
  402453:	e9 c8 fd ff ff                  jmp 0x402220

  402460:	0f 1f 40 aa                     clp		<=
  402464:	ff 25 f6 ed 21 00               jmp qword [rip+0x21edf6]

  40246a:	0f 1f 40 bb                     jlp		<=
  40246e:	68 11 00 00 00                  push 0x11
  402473:	e9 a8 fd ff ff                  jmp 0x402220

  402480:	0f 1f 40 aa                     clp		<=
  402484:	ff 25 de ed 21 00               jmp qword [rip+0x21edde]

  40248a:	0f 1f 40 bb                     jlp		<=
  40248e:	68 12 00 00 00                  push 0x12
  402493:	e9 88 fd ff ff                  jmp 0x402220

  4024a0:	0f 1f 40 aa                     clp		<=
  4024a4:	ff 25 c6 ed 21 00               jmp qword [rip+0x21edc6]

  4024aa:	0f 1f 40 bb                     jlp		<=
  4024ae:	68 13 00 00 00                  push 0x13
  4024b3:	e9 68 fd ff ff                  jmp 0x402220

  4024c0:	0f 1f 40 aa                     clp		<=
  4024c4:	ff 25 ae ed 21 00               jmp qword [rip+0x21edae]

  4024ca:	0f 1f 40 bb                     jlp		<=
  4024ce:	68 14 00 00 00                  push 0x14
  4024d3:	e9 48 fd ff ff                  jmp 0x402220

  4024e0:	0f 1f 40 aa                     clp		<=
  4024e4:	ff 25 96 ed 21 00               jmp qword [rip+0x21ed96]

  4024ea:	0f 1f 40 bb                     jlp		<=
  4024ee:	68 15 00 00 00                  push 0x15
  4024f3:	e9 28 fd ff ff                  jmp 0x402220

  402500:	0f 1f 40 aa                     clp		<=
  402504:	ff 25 7e ed 21 00               jmp qword [rip+0x21ed7e]

  40250a:	0f 1f 40 bb                     jlp		<=
  40250e:	68 16 00 00 00                  push 0x16
  402513:	e9 08 fd ff ff                  jmp 0x402220

  402520:	0f 1f 40 aa                     clp		<=
  402524:	ff 25 66 ed 21 00               jmp qword [rip+0x21ed66]

  40252a:	0f 1f 40 bb                     jlp		<=
  40252e:	68 17 00 00 00                  push 0x17
  402533:	e9 e8 fc ff ff                  jmp 0x402220

  402540:	0f 1f 40 aa                     clp		<=
  402544:	ff 25 4e ed 21 00               jmp qword [rip+0x21ed4e]

  40254a:	0f 1f 40 bb                     jlp		<=
  40254e:	68 18 00 00 00                  push 0x18
  402553:	e9 c8 fc ff ff                  jmp 0x402220

  402560:	0f 1f 40 aa                     clp		<=
  402564:	ff 25 36 ed 21 00               jmp qword [rip+0x21ed36]

  40256a:	0f 1f 40 bb                     jlp		<=
  40256e:	68 19 00 00 00                  push 0x19
  402573:	e9 a8 fc ff ff                  jmp 0x402220

  402580:	0f 1f 40 aa                     clp		<=
  402584:	ff 25 1e ed 21 00               jmp qword [rip+0x21ed1e]

  40258a:	0f 1f 40 bb                     jlp		<=
  40258e:	68 1a 00 00 00                  push 0x1a
  402593:	e9 88 fc ff ff                  jmp 0x402220

  4025a0:	0f 1f 40 aa                     clp		<=
  4025a4:	ff 25 06 ed 21 00               jmp qword [rip+0x21ed06]

  4025aa:	0f 1f 40 bb                     jlp		<=
  4025ae:	68 1b 00 00 00                  push 0x1b
  4025b3:	e9 68 fc ff ff                  jmp 0x402220

  4025c0:	0f 1f 40 aa                     clp		<=
  4025c4:	ff 25 ee ec 21 00               jmp qword [rip+0x21ecee]

  4025ca:	0f 1f 40 bb                     jlp		<=
  4025ce:	68 1c 00 00 00                  push 0x1c
  4025d3:	e9 48 fc ff ff                  jmp 0x402220

  4025e0:	0f 1f 40 aa                     clp		<=
  4025e4:	ff 25 d6 ec 21 00               jmp qword [rip+0x21ecd6]

  4025ea:	0f 1f 40 bb                     jlp		<=
  4025ee:	68 1d 00 00 00                  push 0x1d
  4025f3:	e9 28 fc ff ff                  jmp 0x402220

  402600:	0f 1f 40 aa                     clp		<=
  402604:	ff 25 be ec 21 00               jmp qword [rip+0x21ecbe]

  40260a:	0f 1f 40 bb                     jlp		<=
  40260e:	68 1e 00 00 00                  push 0x1e
  402613:	e9 08 fc ff ff                  jmp 0x402220

  402620:	0f 1f 40 aa                     clp		<=
  402624:	ff 25 a6 ec 21 00               jmp qword [rip+0x21eca6]

  40262a:	0f 1f 40 bb                     jlp		<=
  40262e:	68 1f 00 00 00                  push 0x1f
  402633:	e9 e8 fb ff ff                  jmp 0x402220

  402640:	0f 1f 40 aa                     clp		<=
  402644:	ff 25 8e ec 21 00               jmp qword [rip+0x21ec8e]

  40264a:	0f 1f 40 bb                     jlp		<=
  40264e:	68 20 00 00 00                  push 0x20
  402653:	e9 c8 fb ff ff                  jmp 0x402220

  402660:	0f 1f 40 aa                     clp		<=
  402664:	ff 25 76 ec 21 00               jmp qword [rip+0x21ec76]

  40266a:	0f 1f 40 bb                     jlp		<=
  40266e:	68 21 00 00 00                  push 0x21
  402673:	e9 a8 fb ff ff                  jmp 0x402220

  402680:	0f 1f 40 aa                     clp		<=
  402684:	ff 25 5e ec 21 00               jmp qword [rip+0x21ec5e]

  40268a:	0f 1f 40 bb                     jlp		<=
  40268e:	68 22 00 00 00                  push 0x22
  402693:	e9 88 fb ff ff                  jmp 0x402220

  4026a0:	0f 1f 40 aa                     clp		<=
  4026a4:	ff 25 46 ec 21 00               jmp qword [rip+0x21ec46]

  4026aa:	0f 1f 40 bb                     jlp		<=
  4026ae:	68 23 00 00 00                  push 0x23
  4026b3:	e9 68 fb ff ff                  jmp 0x402220

  4026c0:	0f 1f 40 aa                     clp		<=
  4026c4:	ff 25 2e ec 21 00               jmp qword [rip+0x21ec2e]

  4026ca:	0f 1f 40 bb                     jlp		<=
  4026ce:	68 24 00 00 00                  push 0x24
  4026d3:	e9 48 fb ff ff                  jmp 0x402220

  4026e0:	0f 1f 40 aa                     clp		<=
  4026e4:	ff 25 16 ec 21 00               jmp qword [rip+0x21ec16]

  4026ea:	0f 1f 40 bb                     jlp		<=
  4026ee:	68 25 00 00 00                  push 0x25
  4026f3:	e9 28 fb ff ff                  jmp 0x402220

  402700:	0f 1f 40 aa                     clp		<=
  402704:	ff 25 fe eb 21 00               jmp qword [rip+0x21ebfe]

  40270a:	0f 1f 40 bb                     jlp		<=
  40270e:	68 26 00 00 00                  push 0x26
  402713:	e9 08 fb ff ff                  jmp 0x402220

  402720:	0f 1f 40 aa                     clp		<=
  402724:	ff 25 e6 eb 21 00               jmp qword [rip+0x21ebe6]

  40272a:	0f 1f 40 bb                     jlp		<=
  40272e:	68 27 00 00 00                  push 0x27
  402733:	e9 e8 fa ff ff                  jmp 0x402220

  402740:	0f 1f 40 aa                     clp		<=
  402744:	ff 25 ce eb 21 00               jmp qword [rip+0x21ebce]

  40274a:	0f 1f 40 bb                     jlp		<=
  40274e:	68 28 00 00 00                  push 0x28
  402753:	e9 c8 fa ff ff                  jmp 0x402220

  402760:	0f 1f 40 aa                     clp		<=
  402764:	ff 25 b6 eb 21 00               jmp qword [rip+0x21ebb6]

  40276a:	0f 1f 40 bb                     jlp		<=
  40276e:	68 29 00 00 00                  push 0x29
  402773:	e9 a8 fa ff ff                  jmp 0x402220

  402780:	0f 1f 40 aa                     clp		<=
  402784:	ff 25 9e eb 21 00               jmp qword [rip+0x21eb9e]

  40278a:	0f 1f 40 bb                     jlp		<=
  40278e:	68 2a 00 00 00                  push 0x2a
  402793:	e9 88 fa ff ff                  jmp 0x402220

  4027a0:	0f 1f 40 aa                     clp		<=
  4027a4:	ff 25 86 eb 21 00               jmp qword [rip+0x21eb86]

  4027aa:	0f 1f 40 bb                     jlp		<=
  4027ae:	68 2b 00 00 00                  push 0x2b
  4027b3:	e9 68 fa ff ff                  jmp 0x402220

  4027c0:	0f 1f 40 aa                     clp		<=
  4027c4:	ff 25 6e eb 21 00               jmp qword [rip+0x21eb6e]

  4027ca:	0f 1f 40 bb                     jlp		<=
  4027ce:	68 2c 00 00 00                  push 0x2c
  4027d3:	e9 48 fa ff ff                  jmp 0x402220

  4027e0:	0f 1f 40 aa                     clp		<=
  4027e4:	ff 25 56 eb 21 00               jmp qword [rip+0x21eb56]

  4027ea:	0f 1f 40 bb                     jlp		<=
  4027ee:	68 2d 00 00 00                  push 0x2d
  4027f3:	e9 28 fa ff ff                  jmp 0x402220

  402800:	0f 1f 40 aa                     clp		<=
  402804:	ff 25 3e eb 21 00               jmp qword [rip+0x21eb3e]

  40280a:	0f 1f 40 bb                     jlp		<=
  40280e:	68 2e 00 00 00                  push 0x2e
  402813:	e9 08 fa ff ff                  jmp 0x402220

  402820:	0f 1f 40 aa                     clp		<=
  402824:	ff 25 26 eb 21 00               jmp qword [rip+0x21eb26]

  40282a:	0f 1f 40 bb                     jlp		<=
  40282e:	68 2f 00 00 00                  push 0x2f
  402833:	e9 e8 f9 ff ff                  jmp 0x402220

  402840:	0f 1f 40 aa                     clp		<=
  402844:	ff 25 0e eb 21 00               jmp qword [rip+0x21eb0e]

  40284a:	0f 1f 40 bb                     jlp		<=
  40284e:	68 30 00 00 00                  push 0x30
  402853:	e9 c8 f9 ff ff                  jmp 0x402220

  402860:	0f 1f 40 aa                     clp		<=
  402864:	ff 25 f6 ea 21 00               jmp qword [rip+0x21eaf6]

  40286a:	0f 1f 40 bb                     jlp		<=
  40286e:	68 31 00 00 00                  push 0x31
  402873:	e9 a8 f9 ff ff                  jmp 0x402220

  402880:	0f 1f 40 aa                     clp		<=
  402884:	ff 25 de ea 21 00               jmp qword [rip+0x21eade]

  40288a:	0f 1f 40 bb                     jlp		<=
  40288e:	68 32 00 00 00                  push 0x32
  402893:	e9 88 f9 ff ff                  jmp 0x402220

  4028a0:	0f 1f 40 aa                     clp		<=
  4028a4:	ff 25 c6 ea 21 00               jmp qword [rip+0x21eac6]

  4028aa:	0f 1f 40 bb                     jlp		<=
  4028ae:	68 33 00 00 00                  push 0x33
  4028b3:	e9 68 f9 ff ff                  jmp 0x402220

  4028c0:	0f 1f 40 aa                     clp		<=
  4028c4:	ff 25 ae ea 21 00               jmp qword [rip+0x21eaae]

  4028ca:	0f 1f 40 bb                     jlp		<=
  4028ce:	68 34 00 00 00                  push 0x34
  4028d3:	e9 48 f9 ff ff                  jmp 0x402220

  4028e0:	0f 1f 40 aa                     clp		<=
  4028e4:	ff 25 96 ea 21 00               jmp qword [rip+0x21ea96]

  4028ea:	0f 1f 40 bb                     jlp		<=
  4028ee:	68 35 00 00 00                  push 0x35
  4028f3:	e9 28 f9 ff ff                  jmp 0x402220

  402900:	0f 1f 40 aa                     clp		<=
  402904:	ff 25 7e ea 21 00               jmp qword [rip+0x21ea7e]

  40290a:	0f 1f 40 bb                     jlp		<=
  40290e:	68 36 00 00 00                  push 0x36
  402913:	e9 08 f9 ff ff                  jmp 0x402220

  402920:	0f 1f 40 aa                     clp		<=
  402924:	ff 25 66 ea 21 00               jmp qword [rip+0x21ea66]

  40292a:	0f 1f 40 bb                     jlp		<=
  40292e:	68 37 00 00 00                  push 0x37
  402933:	e9 e8 f8 ff ff                  jmp 0x402220

  402940:	0f 1f 40 aa                     clp		<=
  402944:	ff 25 4e ea 21 00               jmp qword [rip+0x21ea4e]

  40294a:	0f 1f 40 bb                     jlp		<=
  40294e:	68 38 00 00 00                  push 0x38
  402953:	e9 c8 f8 ff ff                  jmp 0x402220

  402960:	0f 1f 40 aa                     clp		<=
  402964:	ff 25 36 ea 21 00               jmp qword [rip+0x21ea36]

  40296a:	0f 1f 40 bb                     jlp		<=
  40296e:	68 39 00 00 00                  push 0x39
  402973:	e9 a8 f8 ff ff                  jmp 0x402220

  402980:	0f 1f 40 aa                     clp		<=
  402984:	ff 25 1e ea 21 00               jmp qword [rip+0x21ea1e]

  40298a:	0f 1f 40 bb                     jlp		<=
  40298e:	68 3a 00 00 00                  push 0x3a
  402993:	e9 88 f8 ff ff                  jmp 0x402220

  4029a0:	0f 1f 40 aa                     clp		<=
  4029a4:	ff 25 06 ea 21 00               jmp qword [rip+0x21ea06]

  4029aa:	0f 1f 40 bb                     jlp		<=
  4029ae:	68 3b 00 00 00                  push 0x3b
  4029b3:	e9 68 f8 ff ff                  jmp 0x402220

  4029c0:	0f 1f 40 aa                     clp		<=
  4029c4:	ff 25 ee e9 21 00               jmp qword [rip+0x21e9ee]

  4029ca:	0f 1f 40 bb                     jlp		<=
  4029ce:	68 3c 00 00 00                  push 0x3c
  4029d3:	e9 48 f8 ff ff                  jmp 0x402220

  4029e0:	0f 1f 40 aa                     clp		<=
  4029e4:	ff 25 d6 e9 21 00               jmp qword [rip+0x21e9d6]

  4029ea:	0f 1f 40 bb                     jlp		<=
  4029ee:	68 3d 00 00 00                  push 0x3d
  4029f3:	e9 28 f8 ff ff                  jmp 0x402220

  402a00:	0f 1f 40 aa                     clp		<=
  402a04:	ff 25 be e9 21 00               jmp qword [rip+0x21e9be]

  402a0a:	0f 1f 40 bb                     jlp		<=
  402a0e:	68 3e 00 00 00                  push 0x3e
  402a13:	e9 08 f8 ff ff                  jmp 0x402220

  402a20:	0f 1f 40 aa                     clp		<=
  402a24:	ff 25 a6 e9 21 00               jmp qword [rip+0x21e9a6]

  402a2a:	0f 1f 40 bb                     jlp		<=
  402a2e:	68 3f 00 00 00                  push 0x3f
  402a33:	e9 e8 f7 ff ff                  jmp 0x402220

  402a40:	0f 1f 40 aa                     clp		<=
  402a44:	ff 25 8e e9 21 00               jmp qword [rip+0x21e98e]

  402a4a:	0f 1f 40 bb                     jlp		<=
  402a4e:	68 40 00 00 00                  push 0x40
  402a53:	e9 c8 f7 ff ff                  jmp 0x402220

  402a60:	0f 1f 40 aa                     clp		<=
  402a64:	ff 25 76 e9 21 00               jmp qword [rip+0x21e976]

  402a6a:	0f 1f 40 bb                     jlp		<=
  402a6e:	68 41 00 00 00                  push 0x41
  402a73:	e9 a8 f7 ff ff                  jmp 0x402220

  402a80:	0f 1f 40 aa                     clp		<=
  402a84:	ff 25 5e e9 21 00               jmp qword [rip+0x21e95e]

  402a8a:	0f 1f 40 bb                     jlp		<=
  402a8e:	68 42 00 00 00                  push 0x42
  402a93:	e9 88 f7 ff ff                  jmp 0x402220

  402aa0:	0f 1f 40 aa                     clp		<=
  402aa4:	ff 25 46 e9 21 00               jmp qword [rip+0x21e946]

  402aaa:	0f 1f 40 bb                     jlp		<=
  402aae:	68 43 00 00 00                  push 0x43
  402ab3:	e9 68 f7 ff ff                  jmp 0x402220

  402ac0:	0f 1f 40 aa                     clp		<=
  402ac4:	ff 25 2e e9 21 00               jmp qword [rip+0x21e92e]

  402aca:	0f 1f 40 bb                     jlp		<=
  402ace:	68 44 00 00 00                  push 0x44
  402ad3:	e9 48 f7 ff ff                  jmp 0x402220

  402ae0:	0f 1f 40 aa                     clp		<=
  402ae4:	ff 25 16 e9 21 00               jmp qword [rip+0x21e916]

  402aea:	0f 1f 40 bb                     jlp		<=
  402aee:	68 45 00 00 00                  push 0x45
  402af3:	e9 28 f7 ff ff                  jmp 0x402220

  402b00:	0f 1f 40 aa                     clp		<=
  402b04:	ff 25 fe e8 21 00               jmp qword [rip+0x21e8fe]

  402b0a:	0f 1f 40 bb                     jlp		<=
  402b0e:	68 46 00 00 00                  push 0x46
  402b13:	e9 08 f7 ff ff                  jmp 0x402220

  402b20:	0f 1f 40 aa                     clp		<=
  402b24:	ff 25 e6 e8 21 00               jmp qword [rip+0x21e8e6]

  402b2a:	0f 1f 40 bb                     jlp		<=
  402b2e:	68 47 00 00 00                  push 0x47
  402b33:	e9 e8 f6 ff ff                  jmp 0x402220

  402b40:	0f 1f 40 aa                     clp		<=
  402b44:	ff 25 ce e8 21 00               jmp qword [rip+0x21e8ce]

  402b4a:	0f 1f 40 bb                     jlp		<=
  402b4e:	68 48 00 00 00                  push 0x48
  402b53:	e9 c8 f6 ff ff                  jmp 0x402220

  402b60:	0f 1f 40 aa                     clp		<=
  402b64:	ff 25 b6 e8 21 00               jmp qword [rip+0x21e8b6]

  402b6a:	0f 1f 40 bb                     jlp		<=
  402b6e:	68 49 00 00 00                  push 0x49
  402b73:	e9 a8 f6 ff ff                  jmp 0x402220

  402b80:	0f 1f 40 aa                     clp		<=
  402b84:	ff 25 9e e8 21 00               jmp qword [rip+0x21e89e]

  402b8a:	0f 1f 40 bb                     jlp		<=
  402b8e:	68 4a 00 00 00                  push 0x4a
  402b93:	e9 88 f6 ff ff                  jmp 0x402220

  402ba0:	0f 1f 40 aa                     clp		<=
  402ba4:	ff 25 86 e8 21 00               jmp qword [rip+0x21e886]

  402baa:	0f 1f 40 bb                     jlp		<=
  402bae:	68 4b 00 00 00                  push 0x4b
  402bb3:	e9 68 f6 ff ff                  jmp 0x402220

  402bc0:	0f 1f 40 aa                     clp		<=
  402bc4:	ff 25 6e e8 21 00               jmp qword [rip+0x21e86e]

  402bca:	0f 1f 40 bb                     jlp		<=
  402bce:	68 4c 00 00 00                  push 0x4c
  402bd3:	e9 48 f6 ff ff                  jmp 0x402220

  402be0:	0f 1f 40 aa                     clp		<=
  402be4:	ff 25 56 e8 21 00               jmp qword [rip+0x21e856]

  402bea:	0f 1f 40 bb                     jlp		<=
  402bee:	68 4d 00 00 00                  push 0x4d
  402bf3:	e9 28 f6 ff ff                  jmp 0x402220

  402c00:	0f 1f 40 aa                     clp		<=
  402c04:	ff 25 3e e8 21 00               jmp qword [rip+0x21e83e]

  402c0a:	0f 1f 40 bb                     jlp		<=
  402c0e:	68 4e 00 00 00                  push 0x4e
  402c13:	e9 08 f6 ff ff                  jmp 0x402220

  402c20:	0f 1f 40 aa                     clp		<=
  402c24:	ff 25 26 e8 21 00               jmp qword [rip+0x21e826]

  402c2a:	0f 1f 40 bb                     jlp		<=
  402c2e:	68 4f 00 00 00                  push 0x4f
  402c33:	e9 e8 f5 ff ff                  jmp 0x402220

  402c40:	0f 1f 40 aa                     clp		<=
  402c44:	ff 25 0e e8 21 00               jmp qword [rip+0x21e80e]

  402c4a:	0f 1f 40 bb                     jlp		<=
  402c4e:	68 50 00 00 00                  push 0x50
  402c53:	e9 c8 f5 ff ff                  jmp 0x402220

  402c60:	0f 1f 40 aa                     clp		<=
  402c64:	ff 25 f6 e7 21 00               jmp qword [rip+0x21e7f6]

  402c6a:	0f 1f 40 bb                     jlp		<=
  402c6e:	68 51 00 00 00                  push 0x51
  402c73:	e9 a8 f5 ff ff                  jmp 0x402220

  402c80:	0f 1f 40 aa                     clp		<=
  402c84:	ff 25 de e7 21 00               jmp qword [rip+0x21e7de]

  402c8a:	0f 1f 40 bb                     jlp		<=
  402c8e:	68 52 00 00 00                  push 0x52
  402c93:	e9 88 f5 ff ff                  jmp 0x402220

  402ca0:	0f 1f 40 aa                     clp		<=
  402ca4:	ff 25 c6 e7 21 00               jmp qword [rip+0x21e7c6]

  402caa:	0f 1f 40 bb                     jlp		<=
  402cae:	68 53 00 00 00                  push 0x53
  402cb3:	e9 68 f5 ff ff                  jmp 0x402220

  402cc0:	0f 1f 40 aa                     clp		<=
  402cc4:	ff 25 ae e7 21 00               jmp qword [rip+0x21e7ae]

  402cca:	0f 1f 40 bb                     jlp		<=
  402cce:	68 54 00 00 00                  push 0x54
  402cd3:	e9 48 f5 ff ff                  jmp 0x402220

  402ce0:	0f 1f 40 aa                     clp		<=
  402ce4:	ff 25 96 e7 21 00               jmp qword [rip+0x21e796]

  402cea:	0f 1f 40 bb                     jlp		<=
  402cee:	68 55 00 00 00                  push 0x55
  402cf3:	e9 28 f5 ff ff                  jmp 0x402220

  402d00:	0f 1f 40 aa                     clp		<=
  402d04:	ff 25 7e e7 21 00               jmp qword [rip+0x21e77e]

  402d0a:	0f 1f 40 bb                     jlp		<=
  402d0e:	68 56 00 00 00                  push 0x56
  402d13:	e9 08 f5 ff ff                  jmp 0x402220

  402d20:	0f 1f 40 aa                     clp		<=
  402d24:	ff 25 66 e7 21 00               jmp qword [rip+0x21e766]

  402d2a:	0f 1f 40 bb                     jlp		<=
  402d2e:	68 57 00 00 00                  push 0x57
  402d33:	e9 e8 f4 ff ff                  jmp 0x402220

  402d40:	0f 1f 40 aa                     clp		<=
  402d44:	ff 25 4e e7 21 00               jmp qword [rip+0x21e74e]

  402d4a:	0f 1f 40 bb                     jlp		<=
  402d4e:	68 58 00 00 00                  push 0x58
  402d53:	e9 c8 f4 ff ff                  jmp 0x402220

  402d60:	0f 1f 40 aa                     clp		<=
  402d64:	ff 25 36 e7 21 00               jmp qword [rip+0x21e736]

  402d6a:	0f 1f 40 bb                     jlp		<=
  402d6e:	68 59 00 00 00                  push 0x59
  402d73:	e9 a8 f4 ff ff                  jmp 0x402220

  402d80:	0f 1f 40 aa                     clp		<=
  402d84:	ff 25 1e e7 21 00               jmp qword [rip+0x21e71e]

  402d8a:	0f 1f 40 bb                     jlp		<=
  402d8e:	68 5a 00 00 00                  push 0x5a
  402d93:	e9 88 f4 ff ff                  jmp 0x402220

  402da0:	0f 1f 40 aa                     clp		<=
  402da4:	ff 25 06 e7 21 00               jmp qword [rip+0x21e706]

  402daa:	0f 1f 40 bb                     jlp		<=
  402dae:	68 5b 00 00 00                  push 0x5b
  402db3:	e9 68 f4 ff ff                  jmp 0x402220

  402dc0:	0f 1f 40 aa                     clp		<=
  402dc4:	ff 25 ee e6 21 00               jmp qword [rip+0x21e6ee]

  402dca:	0f 1f 40 bb                     jlp		<=
  402dce:	68 5c 00 00 00                  push 0x5c
  402dd3:	e9 48 f4 ff ff                  jmp 0x402220

  402de0:	0f 1f 40 aa                     clp		<=
  402de4:	ff 25 d6 e6 21 00               jmp qword [rip+0x21e6d6]

  402dea:	0f 1f 40 bb                     jlp		<=
  402dee:	68 5d 00 00 00                  push 0x5d
  402df3:	e9 28 f4 ff ff                  jmp 0x402220

  402e00:	0f 1f 40 aa                     clp		<=
  402e04:	ff 25 be e6 21 00               jmp qword [rip+0x21e6be]

  402e0a:	0f 1f 40 bb                     jlp		<=
  402e0e:	68 5e 00 00 00                  push 0x5e
  402e13:	e9 08 f4 ff ff                  jmp 0x402220

  402e20:	0f 1f 40 aa                     clp		<=
  402e24:	ff 25 a6 e6 21 00               jmp qword [rip+0x21e6a6]

  402e2a:	0f 1f 40 bb                     jlp		<=
  402e2e:	68 5f 00 00 00                  push 0x5f
  402e33:	e9 e8 f3 ff ff                  jmp 0x402220

  402e40:	0f 1f 40 aa                     clp		<=
  402e44:	ff 25 8e e6 21 00               jmp qword [rip+0x21e68e]

  402e4a:	0f 1f 40 bb                     jlp		<=
  402e4e:	68 60 00 00 00                  push 0x60
  402e53:	e9 c8 f3 ff ff                  jmp 0x402220

  402e60:	0f 1f 40 aa                     clp		<=
  402e64:	ff 25 76 e6 21 00               jmp qword [rip+0x21e676]

  402e6a:	0f 1f 40 bb                     jlp		<=
  402e6e:	68 61 00 00 00                  push 0x61
  402e73:	e9 a8 f3 ff ff                  jmp 0x402220

  402e80:	0f 1f 40 aa                     clp		<=
  402e84:	ff 25 5e e6 21 00               jmp qword [rip+0x21e65e]

  402e8a:	0f 1f 40 bb                     jlp		<=
  402e8e:	68 62 00 00 00                  push 0x62
  402e93:	e9 88 f3 ff ff                  jmp 0x402220

  402ea0:	0f 1f 40 aa                     clp		<=
  402ea4:	ff 25 46 e6 21 00               jmp qword [rip+0x21e646]

  402eaa:	0f 1f 40 bb                     jlp		<=
  402eae:	68 63 00 00 00                  push 0x63
  402eb3:	e9 68 f3 ff ff                  jmp 0x402220

  402ec0:	0f 1f 40 aa                     clp		<=
  402ec4:	ff 25 2e e6 21 00               jmp qword [rip+0x21e62e]

  402eca:	0f 1f 40 bb                     jlp		<=
  402ece:	68 64 00 00 00                  push 0x64
  402ed3:	e9 48 f3 ff ff                  jmp 0x402220

  402ee0:	0f 1f 40 aa                     clp		<=
  402ee4:	ff 25 16 e6 21 00               jmp qword [rip+0x21e616]

  402eea:	0f 1f 40 bb                     jlp		<=
  402eee:	68 65 00 00 00                  push 0x65
  402ef3:	e9 28 f3 ff ff                  jmp 0x402220

  402f00:	0f 1f 40 aa                     clp		<=
  402f04:	ff 25 fe e5 21 00               jmp qword [rip+0x21e5fe]

  402f0a:	0f 1f 40 bb                     jlp		<=
  402f0e:	68 66 00 00 00                  push 0x66
  402f13:	e9 08 f3 ff ff                  jmp 0x402220

  402f20:	0f 1f 40 aa                     clp		<=
  402f24:	ff 25 e6 e5 21 00               jmp qword [rip+0x21e5e6]

  402f2a:	0f 1f 40 bb                     jlp		<=
  402f2e:	68 67 00 00 00                  push 0x67
  402f33:	e9 e8 f2 ff ff                  jmp 0x402220

  402f40:	0f 1f 40 aa                     clp		<=
  402f44:	ff 25 ce e5 21 00               jmp qword [rip+0x21e5ce]

  402f4a:	0f 1f 40 bb                     jlp		<=
  402f4e:	68 68 00 00 00                  push 0x68
  402f53:	e9 c8 f2 ff ff                  jmp 0x402220

  402f60:	0f 1f 40 aa                     clp		<=
  402f64:	ff 25 b6 e5 21 00               jmp qword [rip+0x21e5b6]

  402f6a:	0f 1f 40 bb                     jlp		<=
  402f6e:	68 69 00 00 00                  push 0x69
  402f73:	e9 a8 f2 ff ff                  jmp 0x402220

  402f80:	0f 1f 40 aa                     clp		<=
  402f84:	ff 25 9e e5 21 00               jmp qword [rip+0x21e59e]

  402f8a:	0f 1f 40 bb                     jlp		<=
  402f8e:	68 6a 00 00 00                  push 0x6a
  402f93:	e9 88 f2 ff ff                  jmp 0x402220

  402fa0:	0f 1f 40 aa                     clp		<=
  402fa4:	ff 25 86 e5 21 00               jmp qword [rip+0x21e586]

  402faa:	0f 1f 40 bb                     jlp		<=
  402fae:	68 6b 00 00 00                  push 0x6b
  402fb3:	e9 68 f2 ff ff                  jmp 0x402220

  402fc0:	0f 1f 40 aa                     clp		<=
  402fc4:	ff 25 6e e5 21 00               jmp qword [rip+0x21e56e]

  402fca:	0f 1f 40 bb                     jlp		<=
  402fce:	68 6c 00 00 00                  push 0x6c
  402fd3:	e9 48 f2 ff ff                  jmp 0x402220

  402fe0:	0f 1f 40 aa                     clp		<=
  402fe4:	ff 25 56 e5 21 00               jmp qword [rip+0x21e556]

  402fea:	0f 1f 40 bb                     jlp		<=
  402fee:	68 6d 00 00 00                  push 0x6d
  402ff3:	e9 28 f2 ff ff                  jmp 0x402220

  403000:	0f 1f 40 aa                     clp		<=
  403004:	ff 25 3e e5 21 00               jmp qword [rip+0x21e53e]

  40300a:	0f 1f 40 bb                     jlp		<=
  40300e:	68 6e 00 00 00                  push 0x6e
  403013:	e9 08 f2 ff ff                  jmp 0x402220

  403020:	0f 1f 40 aa                     clp		<=
  403024:	ff 25 26 e5 21 00               jmp qword [rip+0x21e526]

  40302a:	0f 1f 40 bb                     jlp		<=
  40302e:	68 6f 00 00 00                  push 0x6f
  403033:	e9 e8 f1 ff ff                  jmp 0x402220

./exesections/403040-.text: 403040
**********************************************************
  4032dd:	0f 1f 40 cc                     rlp		<=
  4032e1:	4c 8b 4d 80                     mov r9, [rbp-0x80]
  4032e5:	c7 00 00 00 00 00               mov dword [rax], 0x0
  4032eb:	49 8d 76 04                     lea rsi, [r14+0x4]
  4032ef:	49 c7 01 00 00 00 00            mov qword [r9], 0x0
  4032f6:	4d 89 0c 24                     mov [r12], r9
  4032fa:	4d 89 cc                        mov r12, r9
  4032fd:	eb 03                           jmp 0x403302

  40342c:	0f 1f 40 cc                     rlp		<=
  403430:	85 c0                           test eax, eax
  403432:	75 9b                           jnz 0x4033cf
  403434:	31 c0                           xor eax, eax
  403436:	e9 56 01 00 00                  jmp 0x403591

  403464:	0f 1f 40 cc                     rlp		<=
  403468:	85 c0                           test eax, eax
  40346a:	0f 85 64 ff ff ff               jnz 0x4033d4
  403470:	eb c2                           jmp 0x403434

  4034e0:	0f 1f 40 cc                     rlp		<=
  4034e4:	85 c0                           test eax, eax
  4034e6:	0f 84 48 ff ff ff               jz 0x403434
  4034ec:	49 8b 45 00                     mov rax, [r13]
  4034f0:	48 85 c0                        test rax, rax
  4034f3:	48 89 45 c8                     mov [rbp-0x38], rax
  4034f7:	75 be                           jnz 0x4034b7
  4034f9:	b8 01 00 00 00                  mov eax, 0x1
  4034fe:	e9 8e 00 00 00                  jmp 0x403591

  403520:	0f 1f 40 cc                     rlp		<=
  403524:	85 c0                           test eax, eax
  403526:	75 db                           jnz 0x403503
  403528:	48 83 c3 04                     add rbx, 0x4
  40352c:	48 3b 5d b8                     cmp rbx, [rbp-0x48]
  403530:	77 c7                           ja 0x4034f9
  403532:	4c 8b 75 b0                     mov r14, [rbp-0x50]
  403536:	eb d3                           jmp 0x40350b

  403584:	0f 1f 40 cc                     rlp		<=
  403588:	85 c0                           test eax, eax
  40358a:	75 9c                           jnz 0x403528
  40358c:	e9 a3 fe ff ff                  jmp 0x403434

  4037bc:	0f 1f 40 cc                     rlp		<=
  4037c0:	4c 8b 45 88                     mov r8, [rbp-0x78]
  4037c4:	c6 00 00                        mov byte [rax], 0x0
  4037c7:	49 8d 74 24 01                  lea rsi, [r12+0x1]
  4037cc:	49 c7 00 00 00 00 00            mov qword [r8], 0x0
  4037d3:	4d 89 45 00                     mov [r13], r8
  4037d7:	4d 89 c5                        mov r13, r8
  4037da:	eb 03                           jmp 0x4037df

  403907:	0f 1f 40 cc                     rlp		<=
  40390b:	85 c0                           test eax, eax
  40390d:	75 9c                           jnz 0x4038ab
  40390f:	31 c0                           xor eax, eax
  403911:	e9 5a 01 00 00                  jmp 0x403a70

  40393f:	0f 1f 40 cc                     rlp		<=
  403943:	85 c0                           test eax, eax
  403945:	0f 85 65 ff ff ff               jnz 0x4038b0
  40394b:	eb c2                           jmp 0x40390f

  4039be:	0f 1f 40 cc                     rlp		<=
  4039c2:	85 c0                           test eax, eax
  4039c4:	0f 84 45 ff ff ff               jz 0x40390f
  4039ca:	49 8b 07                        mov rax, [r15]
  4039cd:	48 85 c0                        test rax, rax
  4039d0:	48 89 45 c8                     mov [rbp-0x38], rax
  4039d4:	75 bf                           jnz 0x403995
  4039d6:	b8 01 00 00 00                  mov eax, 0x1
  4039db:	e9 90 00 00 00                  jmp 0x403a70

  4039ff:	0f 1f 40 cc                     rlp		<=
  403a03:	85 c0                           test eax, eax
  403a05:	75 d9                           jnz 0x4039e0
  403a07:	49 ff c5                        inc r13
  403a0a:	4c 3b 6d b8                     cmp r13, [rbp-0x48]
  403a0e:	77 c6                           ja 0x4039d6
  403a10:	4c 8b 65 b0                     mov r12, [rbp-0x50]
  403a14:	eb d3                           jmp 0x4039e9

  403a63:	0f 1f 40 cc                     rlp		<=
  403a67:	85 c0                           test eax, eax
  403a69:	75 9c                           jnz 0x403a07
  403a6b:	e9 9f fe ff ff                  jmp 0x40390f

  403b5f:	0f 1f 40 cc                     rlp		<=
  403b63:	85 c0                           test eax, eax
  403b65:	0f 84 5d 10 00 00               jz 0x404bc8
  403b6b:	c7 05 7b e7 21 00 02 00 00 00   mov dword [rip+0x21e77b], 0x2
  403b75:	c6 05 14 e7 21 00 01            mov byte [rip+0x21e714], 0x1
  403b7c:	eb 1a                           jmp 0x403b98

  403d41:	0f 1f 40 cc                     rlp		<=
  403d45:	83 f8 ff                        cmp eax, 0xffffffff
  403d48:	0f 84 0b 08 00 00               jz 0x404559
  403d4e:	05 83 00 00 00                  add eax, 0x83
  403d53:	3d 12 01 00 00                  cmp eax, 0x112
  403d58:	0f 87 d2 07 00 00               ja 0x404530
  403d5e:	ff 24 c5 d0 85 41 00            jmp qword [rax*8+0x4185d0]

  403d65:	0f 1f 40 bb                     jlp		<=
  403d69:	c6 05 75 e5 21 00 01            mov byte [rip+0x21e575], 0x1
  403d70:	c7 05 76 e5 21 00 00 00 00 00   mov dword [rip+0x21e576], 0x0
  403d7a:	eb a4                           jmp 0x403d20

  403d7c:	0f 1f 40 bb                     jlp		<=
  403d80:	41 be 01 00 00 00               mov r14d, 0x1
  403d86:	eb 98                           jmp 0x403d20

  403d88:	0f 1f 40 bb                     jlp		<=
  403d8c:	c6 05 21 e5 21 00 01            mov byte [rip+0x21e521], 0x1
  403d93:	eb 8b                           jmp 0x403d20

  403d95:	0f 1f 40 bb                     jlp		<=
  403d99:	c7 05 3d e5 21 00 b0 00 00 00   mov dword [rip+0x21e53d], 0xb0
  403da3:	c7 05 27 e5 21 00 b0 00 00 00   mov dword [rip+0x21e527], 0xb0
  403dad:	48 c7 05 20 e5 21 00 01 00 00 00               mov qword [rip+0x21e520], 0x1
  403db8:	48 c7 05 5d d9 21 00 01 00 00 00               mov qword [rip+0x21d95d], 0x1
  403dc3:	e9 58 ff ff ff                  jmp 0x403d20

  403dc8:	0f 1f 40 bb                     jlp		<=
  403dcc:	c7 05 1a e5 21 00 00 00 00 00   mov dword [rip+0x21e51a], 0x0
  403dd6:	c6 05 4c d9 21 00 00            mov byte [rip+0x21d94c], 0x0
  403ddd:	e9 3e ff ff ff                  jmp 0x403d20

  403de2:	0f 1f 40 bb                     jlp		<=
  403de6:	83 3d 03 e5 21 00 00            cmp dword [rip+0x21e503], 0x0
  403ded:	c7 05 b1 e4 21 00 02 00 00 00   mov dword [rip+0x21e4b1], 0x2
  403df7:	c7 05 e7 e4 21 00 ff ff ff ff   mov dword [rip+0x21e4e7], 0xffffffff
  403e01:	0f 84 81 12 00 00               jz 0x405088
  403e07:	c6 05 d6 e4 21 00 00            mov byte [rip+0x21e4d6], 0x0
  403e0e:	c6 05 b4 e4 21 00 00            mov byte [rip+0x21e4b4], 0x0
  403e15:	41 bd 01 00 00 00               mov r13d, 0x1
  403e1b:	e9 00 ff ff ff                  jmp 0x403d20

  403e20:	0f 1f 40 bb                     jlp		<=
  403e24:	c6 05 82 e4 21 00 01            mov byte [rip+0x21e482], 0x1
  403e2b:	e9 f0 fe ff ff                  jmp 0x403d20

  403e30:	0f 1f 40 bb                     jlp		<=
  403e34:	c7 05 ae e4 21 00 01 00 00 00   mov dword [rip+0x21e4ae], 0x1
  403e3e:	e9 dd fe ff ff                  jmp 0x403d20

  403e43:	0f 1f 40 bb                     jlp		<=
  403e47:	be 05 00 00 00                  mov esi, 0x5
  403e4c:	31 ff                           xor edi, edi
  403e4e:	e8 6d c7 00 00                  call 0x4105c0
  403e53:	0f 1f 40 cc                     rlp		<=
  403e57:	e9 c4 fe ff ff                  jmp 0x403d20

  403e5c:	0f 1f 40 bb                     jlp		<=
  403e60:	c7 05 3e e4 21 00 02 00 00 00   mov dword [rip+0x21e43e], 0x2
  403e6a:	e9 b1 fe ff ff                  jmp 0x403d20

  403e6f:	0f 1f 40 bb                     jlp		<=
  403e73:	c6 05 a3 e4 21 00 01            mov byte [rip+0x21e4a3], 0x1
  403e7a:	e9 a1 fe ff ff                  jmp 0x403d20

  403e7f:	0f 1f 40 bb                     jlp		<=
  403e83:	c7 05 5b e4 21 00 01 00 00 00   mov dword [rip+0x21e45b], 0x1
  403e8d:	41 bd 01 00 00 00               mov r13d, 0x1
  403e93:	e9 88 fe ff ff                  jmp 0x403d20

  403e98:	0f 1f 40 bb                     jlp		<=
  403e9c:	c7 05 42 e4 21 00 ff ff ff ff   mov dword [rip+0x21e442], 0xffffffff
  403ea6:	41 bd 01 00 00 00               mov r13d, 0x1
  403eac:	e9 6f fe ff ff                  jmp 0x403d20

  403ecd:	0f 1f 40 cc                     rlp		<=
  403ed1:	85 c0                           test eax, eax
  403ed3:	0f 85 6a 11 00 00               jnz 0x405043
  403ed9:	48 8b 44 24 40                  mov rax, [rsp+0x40]
  403ede:	48 89 05 93 e3 21 00            mov [rip+0x21e393], rax
  403ee5:	e9 36 fe ff ff                  jmp 0x403d20

  403eea:	0f 1f 40 bb                     jlp		<=
  403eee:	c7 05 f0 e3 21 00 02 00 00 00   mov dword [rip+0x21e3f0], 0x2
  403ef8:	41 bd 01 00 00 00               mov r13d, 0x1
  403efe:	e9 1d fe ff ff                  jmp 0x403d20

  403f03:	0f 1f 40 bb                     jlp		<=
  403f07:	c6 05 a0 e3 21 00 01            mov byte [rip+0x21e3a0], 0x1
  403f0e:	e9 0d fe ff ff                  jmp 0x403d20

  403f13:	0f 1f 40 bb                     jlp		<=
  403f17:	be 03 00 00 00                  mov esi, 0x3
  403f1c:	31 ff                           xor edi, edi
  403f1e:	e8 9d c6 00 00                  call 0x4105c0
  403f23:	0f 1f 40 cc                     rlp		<=
  403f27:	e9 f4 fd ff ff                  jmp 0x403d20

  403f2c:	0f 1f 40 bb                     jlp		<=
  403f30:	31 f6                           xor esi, esi
  403f32:	31 ff                           xor edi, edi
  403f34:	e8 87 c6 00 00                  call 0x4105c0
  403f39:	0f 1f 40 cc                     rlp		<=
  403f3d:	0f 1f 00                        nop [rax]
  403f40:	e9 db fd ff ff                  jmp 0x403d20

  403f45:	0f 1f 40 bb                     jlp		<=
  403f49:	c7 05 5d e3 21 00 05 00 00 00   mov dword [rip+0x21e35d], 0x5
  403f53:	e9 c8 fd ff ff                  jmp 0x403d20

  403f58:	0f 1f 40 bb                     jlp		<=
  403f5c:	bf 10 00 00 00                  mov edi, 0x10
  403f61:	4c 8b 3d e0 e5 21 00            mov r15, [rip+0x21e5e0]
  403f68:	e8 73 ef 00 00                  call 0x412ee0
  403f6d:	0f 1f 40 cc                     rlp		<=
  403f71:	48 8b 15 28 e3 21 00            mov rdx, [rip+0x21e328]
  403f78:	4c 89 38                        mov [rax], r15
  403f7b:	48 89 50 08                     mov [rax+0x8], rdx
  403f7f:	48 89 05 1a e3 21 00            mov [rip+0x21e31a], rax
  403f86:	e9 95 fd ff ff                  jmp 0x403d20

  403f8b:	0f 1f 40 bb                     jlp		<=
  403f8f:	c7 05 17 e3 21 00 03 00 00 00   mov dword [rip+0x21e317], 0x3
  403f99:	e9 82 fd ff ff                  jmp 0x403d20

  403f9e:	0f 1f 40 bb                     jlp		<=
  403fa2:	c6 05 7f d7 21 00 00            mov byte [rip+0x21d77f], 0x0
  403fa9:	e9 72 fd ff ff                  jmp 0x403d20

  403fae:	0f 1f 40 bb                     jlp		<=
  403fb2:	c7 05 10 e3 21 00 03 00 00 00   mov dword [rip+0x21e310], 0x3
  403fbc:	e9 5f fd ff ff                  jmp 0x403d20

  403fc1:	0f 1f 40 bb                     jlp		<=
  403fc5:	c6 05 04 e3 21 00 01            mov byte [rip+0x21e304], 0x1
  403fcc:	e9 4f fd ff ff                  jmp 0x403d20

  403fd1:	0f 1f 40 bb                     jlp		<=
  403fd5:	c7 05 11 e3 21 00 02 00 00 00   mov dword [rip+0x21e311], 0x2
  403fdf:	e9 3c fd ff ff                  jmp 0x403d20

  404019:	0f 1f 40 cc                     rlp		<=
  40401d:	48 8b 15 7c e2 21 00            mov rdx, [rip+0x21e27c]
  404024:	48 c7 00 cf 9a 41 00            mov qword [rax], 0x419acf
  40402b:	48 89 50 08                     mov [rax+0x8], rdx
  40402f:	48 89 05 6a e2 21 00            mov [rip+0x21e26a], rax
  404036:	e9 e5 fc ff ff                  jmp 0x403d20

  40403b:	0f 1f 40 bb                     jlp		<=
  40403f:	83 3d 62 e2 21 00 00            cmp dword [rip+0x21e262], 0x0
  404046:	0f 85 d4 fc ff ff               jnz 0x403d20
  40404c:	c7 05 52 e2 21 00 01 00 00 00   mov dword [rip+0x21e252], 0x1
  404056:	e9 c5 fc ff ff                  jmp 0x403d20

  40405b:	0f 1f 40 bb                     jlp		<=
  40405f:	83 3d 8a e2 21 00 00            cmp dword [rip+0x21e28a], 0x0
  404066:	0f 84 b4 fc ff ff               jz 0x403d20
  40406c:	c7 05 7a e2 21 00 01 00 00 00   mov dword [rip+0x21e27a], 0x1
  404076:	e9 a5 fc ff ff                  jmp 0x403d20

  4040d8:	0f 1f 40 cc                     rlp		<=
  4040dc:	31 ff                           xor edi, edi
  4040de:	e8 bd ed ff ff                  call 0x402ea0
  4040e3:	0f 1f 40 bb                     jlp		<=
  4040e7:	4c 8b 25 5a e4 21 00            mov r12, [rip+0x21e45a]
  4040ee:	e9 2d fc ff ff                  jmp 0x403d20

  40411f:	0f 1f 40 cc                     rlp		<=
  404123:	8b 04 85 f0 91 41 00            mov eax, [rax*4+0x4191f0]
  40412a:	89 05 bc e1 21 00               mov [rip+0x21e1bc], eax
  404130:	e9 eb fb ff ff                  jmp 0x403d20

  404167:	0f 1f 40 cc                     rlp		<=
  40416b:	8b 04 85 50 92 41 00            mov eax, [rax*4+0x419250]
  404172:	89 05 70 e1 21 00               mov [rip+0x21e170], eax
  404178:	e9 a3 fb ff ff                  jmp 0x403d20

  40417d:	0f 1f 40 bb                     jlp		<=
  404181:	c7 05 55 e1 21 00 90 00 00 00   mov dword [rip+0x21e155], 0x90
  40418b:	c7 05 3f e1 21 00 90 00 00 00   mov dword [rip+0x21e13f], 0x90
  404195:	48 c7 05 38 e1 21 00 01 00 00 00               mov qword [rip+0x21e138], 0x1
  4041a0:	48 c7 05 75 d5 21 00 01 00 00 00               mov qword [rip+0x21d575], 0x1
  4041ab:	e9 70 fb ff ff                  jmp 0x403d20

  4041b0:	0f 1f 40 bb                     jlp		<=
  4041b4:	c6 05 d5 e0 21 00 00            mov byte [rip+0x21e0d5], 0x0
  4041bb:	e9 60 fb ff ff                  jmp 0x403d20

  4041ec:	0f 1f 40 cc                     rlp		<=
  4041f0:	8b 34 85 a0 c6 41 00            mov esi, [rax*4+0x41c6a0]
  4041f7:	31 ff                           xor edi, edi
  4041f9:	e8 c2 c3 00 00                  call 0x4105c0
  4041fe:	0f 1f 40 cc                     rlp		<=
  404202:	e9 19 fb ff ff                  jmp 0x403d20

  404233:	0f 1f 40 cc                     rlp		<=
  404237:	8b 04 85 50 99 41 00            mov eax, [rax*4+0x419950]
  40423e:	89 05 88 e0 21 00               mov [rip+0x21e088], eax
  404244:	e9 d7 fa ff ff                  jmp 0x403d20

  404249:	0f 1f 40 bb                     jlp		<=
  40424d:	bf 10 00 00 00                  mov edi, 0x10
  404252:	e8 89 ec 00 00                  call 0x412ee0
  404257:	0f 1f 40 cc                     rlp		<=
  40425b:	48 8b 15 e6 e2 21 00            mov rdx, [rip+0x21e2e6]
  404262:	48 89 10                        mov [rax], rdx
  404265:	48 8b 15 2c e0 21 00            mov rdx, [rip+0x21e02c]
  40426c:	48 89 05 25 e0 21 00            mov [rip+0x21e025], rax
  404273:	48 89 50 08                     mov [rax+0x8], rdx
  404277:	e9 a4 fa ff ff                  jmp 0x403d20

  40427c:	0f 1f 40 bb                     jlp		<=
  404280:	c6 05 25 e0 21 00 01            mov byte [rip+0x21e025], 0x1
  404287:	e9 94 fa ff ff                  jmp 0x403d20

  40428c:	0f 1f 40 bb                     jlp		<=
  404290:	c7 05 56 e0 21 00 00 00 00 00   mov dword [rip+0x21e056], 0x0
  40429a:	41 bc 7f 9a 41 00               mov r12d, 0x419a7f
  4042a0:	e9 7b fa ff ff                  jmp 0x403d20

  4042d1:	0f 1f 40 cc                     rlp		<=
  4042d5:	8b 04 85 b0 92 41 00            mov eax, [rax*4+0x4192b0]
  4042dc:	89 05 0e e0 21 00               mov [rip+0x21e00e], eax
  4042e2:	e9 39 fa ff ff                  jmp 0x403d20

  4042e7:	0f 1f 40 bb                     jlp		<=
  4042eb:	c7 05 d7 df 21 00 02 00 00 00   mov dword [rip+0x21dfd7], 0x2
  4042f5:	e9 26 fa ff ff                  jmp 0x403d20

  4042fa:	0f 1f 40 bb                     jlp		<=
  4042fe:	c7 05 a8 df 21 00 04 00 00 00   mov dword [rip+0x21dfa8], 0x4
  404308:	e9 13 fa ff ff                  jmp 0x403d20

  404342:	0f 1f 40 cc                     rlp		<=
  404346:	8b 04 85 60 91 41 00            mov eax, [rax*4+0x419160]
  40434d:	83 f8 01                        cmp eax, 0x1
  404350:	0f 84 5b 0a 00 00               jz 0x404db1
  404356:	83 f8 02                        cmp eax, 0x2
  404359:	0f 84 3c 0a 00 00               jz 0x404d9b
  40435f:	c6 05 63 df 21 00 00            mov byte [rip+0x21df63], 0x0
  404366:	e9 b5 f9 ff ff                  jmp 0x403d20

  404385:	0f 1f 40 cc                     rlp		<=
  404389:	85 c0                           test eax, eax
  40438b:	0f 85 8b 15 00 00               jnz 0x40591c
  404391:	8b 05 49 df 21 00               mov eax, [rip+0x21df49]
  404397:	89 05 37 df 21 00               mov [rip+0x21df37], eax
  40439d:	48 8b 05 34 df 21 00            mov rax, [rip+0x21df34]
  4043a4:	48 89 05 75 d3 21 00            mov [rip+0x21d375], rax
  4043ab:	e9 70 f9 ff ff                  jmp 0x403d20

  4043b0:	0f 1f 40 bb                     jlp		<=
  4043b4:	c6 05 2b df 21 00 01            mov byte [rip+0x21df2b], 0x1
  4043bb:	e9 60 f9 ff ff                  jmp 0x403d20

  4043c0:	0f 1f 40 bb                     jlp		<=
  4043c4:	c7 05 22 df 21 00 03 00 00 00   mov dword [rip+0x21df22], 0x3
  4043ce:	e9 4d f9 ff ff                  jmp 0x403d20

  40443b:	0f 1f 40 cc                     rlp		<=
  40443f:	48 8b 44 24 40                  mov rax, [rsp+0x40]
  404444:	48 89 05 1d de 21 00            mov [rip+0x21de1d], rax
  40444b:	e9 d0 f8 ff ff                  jmp 0x403d20

  404450:	0f 1f 40 bb                     jlp		<=
  404454:	c7 05 8a de 21 00 03 00 00 00   mov dword [rip+0x21de8a], 0x3
  40445e:	41 bd 01 00 00 00               mov r13d, 0x1
  404464:	e9 b7 f8 ff ff                  jmp 0x403d20

  404469:	0f 1f 40 bb                     jlp		<=
  40446d:	c7 05 75 de 21 00 02 00 00 00   mov dword [rip+0x21de75], 0x2
  404477:	e9 a4 f8 ff ff                  jmp 0x403d20

  40447c:	0f 1f 40 bb                     jlp		<=
  404480:	c7 05 5e de 21 00 04 00 00 00   mov dword [rip+0x21de5e], 0x4
  40448a:	41 bd 01 00 00 00               mov r13d, 0x1
  404490:	e9 8b f8 ff ff                  jmp 0x403d20

  404495:	0f 1f 40 bb                     jlp		<=
  404499:	c6 05 44 de 21 00 01            mov byte [rip+0x21de44], 0x1
  4044a0:	e9 7b f8 ff ff                  jmp 0x403d20

  4044a5:	0f 1f 40 bb                     jlp		<=
  4044a9:	c6 05 37 de 21 00 01            mov byte [rip+0x21de37], 0x1
  4044b0:	e9 6b f8 ff ff                  jmp 0x403d20

  4044b5:	0f 1f 40 bb                     jlp		<=
  4044b9:	c6 05 d0 dd 21 00 01            mov byte [rip+0x21ddd0], 0x1
  4044c0:	e9 5b f8 ff ff                  jmp 0x403d20

  4044c5:	0f 1f 40 bb                     jlp		<=
  4044c9:	c7 05 f9 dd 21 00 01 00 00 00   mov dword [rip+0x21ddf9], 0x1
  4044d3:	e9 48 f8 ff ff                  jmp 0x403d20

  4044d8:	0f 1f 40 bb                     jlp		<=
  4044dc:	c7 05 0a de 21 00 00 00 00 00   mov dword [rip+0x21de0a], 0x0
  4044e6:	c6 05 3b d2 21 00 00            mov byte [rip+0x21d23b], 0x0
  4044ed:	e9 2e f8 ff ff                  jmp 0x403d20

  4044f2:	0f 1f 40 bb                     jlp		<=
  4044f6:	c7 05 f0 dd 21 00 04 00 00 00   mov dword [rip+0x21ddf0], 0x4
  404500:	e9 1b f8 ff ff                  jmp 0x403d20

  40452c:	0f 1f 40 cc                     rlp		<=
  404530:	bf 02 00 00 00                  mov edi, 0x2
  404535:	e8 06 6e 00 00                  call 0x40b340
  40453a:	be 05 00 00 00                  mov esi, 0x5
  40453f:	31 ff                           xor edi, edi
  404541:	c7 05 a5 dd 21 00 02 00 00 00   mov dword [rip+0x21dda5], 0x2
  40454b:	e8 70 c0 00 00                  call 0x4105c0
  404550:	0f 1f 40 cc                     rlp		<=
  404554:	e9 3f f6 ff ff                  jmp 0x403b98

  4047a6:	0f 1f 40 cc                     rlp		<=
  4047aa:	44 39 e3                        cmp ebx, r12d
  4047ad:	7f da                           jg 0x404789
  4047af:	48 83 3d 99 db 21 00 00         cmp qword [rip+0x21db99], 0x0
  4047b7:	0f 85 c9 0f 00 00               jnz 0x405786
  4047bd:	48 8b 05 6c db 21 00            mov rax, [rip+0x21db6c]
  4047c4:	41 83 ed 01                     sub r13d, 0x1
  4047c8:	48 89 44 24 10                  mov [rsp+0x10], rax
  4047cd:	7f 7b                           jg 0x40484a
  4047cf:	e9 c4 10 00 00                  jmp 0x405898

  404b2d:	0f 1f 40 cc                     rlp		<=
  404b31:	85 c0                           test eax, eax
  404b33:	75 db                           jnz 0x404b10
  404b35:	0f 1f 00                        nop [rax]
  404b38:	e8 f3 31 00 00                  call 0x407d30
  404b3d:	0f 1f 40 cc                     rlp		<=
  404b41:	e9 6a ff ff ff                  jmp 0x404ab0

  404b72:	0f 1f 40 cc                     rlp		<=
  404b76:	4c 89 e1                        mov rcx, r12
  404b79:	48 89 c2                        mov rdx, rax
  404b7c:	31 f6                           xor esi, esi
  404b7e:	31 ff                           xor edi, edi
  404b80:	31 c0                           xor eax, eax
  404b82:	e8 19 e2 ff ff                  call 0x402da0
  404b87:	0f 1f 40 cc                     rlp		<=
  404b8b:	e9 ce f0 ff ff                  jmp 0x403c5e

  404ba2:	0f 1f 40 cc                     rlp		<=
  404ba6:	85 c0                           test eax, eax
  404ba8:	0f 85 ad 01 00 00               jnz 0x404d5b
  404bae:	48 8b 44 24 40                  mov rax, [rsp+0x40]
  404bb3:	48 85 c0                        test rax, rax
  404bb6:	0f 84 9f 01 00 00               jz 0x404d5b
  404bbc:	48 89 05 a5 d6 21 00            mov [rip+0x21d6a5], rax
  404bc3:	e9 cc f0 ff ff                  jmp 0x403c94

  404bc8:	0f 1f 40 bb                     jlp		<=
  404bcc:	c7 05 1a d7 21 00 01 00 00 00   mov dword [rip+0x21d71a], 0x1
  404bd6:	e9 bd ef ff ff                  jmp 0x403b98

  404d7d:	0f 1f 40 cc                     rlp		<=
  404d81:	4c 89 e1                        mov rcx, r12
  404d84:	48 89 c2                        mov rdx, rax
  404d87:	31 f6                           xor esi, esi
  404d89:	31 ff                           xor edi, edi
  404d8b:	31 c0                           xor eax, eax
  404d8d:	e8 0e e0 ff ff                  call 0x402da0
  404d92:	0f 1f 40 cc                     rlp		<=
  404d96:	e9 f9 ee ff ff                  jmp 0x403c94

  404da5:	0f 1f 40 cc                     rlp		<=
  404da9:	85 c0                           test eax, eax
  404dab:	0f 84 ae f5 ff ff               jz 0x40435f
  404db1:	c6 05 11 d5 21 00 01            mov byte [rip+0x21d511], 0x1
  404db8:	48 c7 05 b5 d4 21 00 00 00 00 00               mov qword [rip+0x21d4b5], 0x0
  404dc3:	e9 58 ef ff ff                  jmp 0x403d20

  404ea3:	0f 1f 40 cc                     rlp		<=
  404ea7:	e9 d1 f7 ff ff                  jmp 0x40467d

  405030:	0f 1f 40 cc                     rlp		<=
  405034:	49 83 c5 04                     add r13, 0x4
  405038:	49 83 fd 30                     cmp r13, 0x30
  40503c:	75 b5                           jnz 0x404ff3
  40503e:	e9 20 f6 ff ff                  jmp 0x404663

  405067:	0f 1f 40 cc                     rlp		<=
  40506b:	4c 89 f9                        mov rcx, r15
  40506e:	48 89 c2                        mov rdx, rax
  405071:	31 f6                           xor esi, esi
  405073:	bf 02 00 00 00                  mov edi, 0x2
  405078:	31 c0                           xor eax, eax
  40507a:	e8 21 dd ff ff                  call 0x402da0
  40507f:	0f 1f 40 cc                     rlp		<=
  405083:	e9 51 ee ff ff                  jmp 0x403ed9

  405092:	0f 1f 40 cc                     rlp		<=
  405096:	83 f8 01                        cmp eax, 0x1
  405099:	19 c0                           sbb eax, eax
  40509b:	83 c0 02                        add eax, 0x2
  40509e:	89 05 4c d2 21 00               mov [rip+0x21d24c], eax
  4050a4:	e9 5e ed ff ff                  jmp 0x403e07

  405105:	0f 1f 40 cc                     rlp		<=
  405109:	85 c0                           test eax, eax
  40510b:	75 db                           jnz 0x4050e8
  40510d:	e9 26 fa ff ff                  jmp 0x404b38

  405290:	0f 1f 40 cc                     rlp		<=
  405294:	e9 74 f5 ff ff                  jmp 0x40480d

  405306:	0f 1f 40 cc                     rlp		<=
  40530a:	e8 71 41 00 00                  call 0x409480
  40530f:	0f 1f 40 cc                     rlp		<=
  405313:	e8 b8 0c 00 00                  call 0x405fd0
  405318:	0f 1f 40 cc                     rlp		<=
  40531c:	0f 1f 40 00                     nop [rax]
  405320:	e9 13 f8 ff ff                  jmp 0x404b38

  405332:	0f 1f 40 cc                     rlp		<=
  405336:	c1 e8 1f                        shr eax, 0x1f
  405339:	e9 b7 f5 ff ff                  jmp 0x4048f5

  40537f:	0f 1f 40 cc                     rlp		<=
  405383:	4c 89 ef                        mov rdi, r13
  405386:	e8 d5 d4 ff ff                  call 0x402860
  40538b:	0f 1f 40 cc                     rlp		<=
  40538f:	c7 05 37 ce 21 00 02 00 00 00   mov dword [rip+0x21ce37], 0x2
  405399:	e9 6f f4 ff ff                  jmp 0x40480d

  4053a8:	0f 1f 40 cc                     rlp		<=
  4053ac:	e9 cc fd ff ff                  jmp 0x40517d

  4053c2:	0f 1f 40 cc                     rlp		<=
  4053c6:	0f b6 7c 24 2f                  movzx edi, byte [rsp+0x2f]
  4053cb:	4c 89 f2                        mov rdx, r14
  4053ce:	48 89 c6                        mov rsi, rax
  4053d1:	e8 aa 1b 00 00                  call 0x406f80
  4053d6:	0f 1f 40 cc                     rlp		<=
  4053da:	e9 88 fd ff ff                  jmp 0x405167

  4053fa:	0f 1f 40 cc                     rlp		<=
  4053fe:	48 83 05 b2 cd 21 00 02         add qword [rip+0x21cdb2], 0x2
  405406:	e9 96 fd ff ff                  jmp 0x4051a1

  405506:	0f 1f 40 cc                     rlp		<=
  40550a:	48 8b 7b 08                     mov rdi, [rbx+0x8]
  40550e:	e8 ed cd ff ff                  call 0x402300
  405513:	0f 1f 40 cc                     rlp		<=
  405517:	48 89 df                        mov rdi, rbx
  40551a:	e8 e1 cd ff ff                  call 0x402300
  40551f:	0f 1f 40 cc                     rlp		<=
  405523:	e9 16 f3 ff ff                  jmp 0x40483e

  405544:	0f 1f 40 cc                     rlp		<=
  405548:	48 8b 05 c9 cb 21 00            mov rax, [rip+0x21cbc9]
  40554f:	e9 01 f5 ff ff                  jmp 0x404a55

  405574:	0f 1f 40 cc                     rlp		<=
  405578:	4c 89 e1                        mov rcx, r12
  40557b:	48 89 c2                        mov rdx, rax
  40557e:	31 f6                           xor esi, esi
  405580:	31 ff                           xor edi, edi
  405582:	31 c0                           xor eax, eax
  405584:	e8 17 d8 ff ff                  call 0x402da0
  405589:	0f 1f 40 cc                     rlp		<=
  40558d:	e9 7f e7 ff ff                  jmp 0x403d11

  4055a3:	0f 1f 40 cc                     rlp		<=
  4055a7:	0f b6 7c 24 2f                  movzx edi, byte [rsp+0x2f]
  4055ac:	4c 89 f2                        mov rdx, r14
  4055af:	48 89 c6                        mov rsi, rax
  4055b2:	e8 c9 19 00 00                  call 0x406f80
  4055b7:	0f 1f 40 cc                     rlp		<=
  4055bb:	e9 4d f2 ff ff                  jmp 0x40480d

  4055cf:	0f 1f 40 cc                     rlp		<=
  4055d3:	48 8b 05 3e cb 21 00            mov rax, [rip+0x21cb3e]
  4055da:	e9 78 fe ff ff                  jmp 0x405457

  40560d:	0f 1f 40 cc                     rlp		<=
  405611:	bf b0 15 62 00                  mov edi, 0x6215b0
  405616:	e8 b5 26 00 00                  call 0x407cd0
  40561b:	0f 1f 40 cc                     rlp		<=
  40561f:	48 8b 3d aa c1 21 00            mov rdi, [rip+0x21c1aa]
  405626:	bb 60 8f 41 00                  mov ebx, 0x418f60
  40562b:	e8 30 d9 ff ff                  call 0x402f60
  405630:	0f 1f 40 cc                     rlp		<=
  405634:	eb 17                           jmp 0x40564d

  40565b:	0f 1f 40 cc                     rlp		<=
  40565f:	85 c0                           test eax, eax
  405661:	74 dd                           jz 0x405640
  405663:	31 f6                           xor esi, esi
  405665:	89 ef                           mov edi, ebp
  405667:	e8 34 d3 ff ff                  call 0x4029a0
  40566c:	0f 1f 40 cc                     rlp		<=
  405670:	eb ce                           jmp 0x405640

  405773:	0f 1f 40 cc                     rlp		<=
  405777:	e9 33 f0 ff ff                  jmp 0x4047af

  405822:	0f 1f 40 cc                     rlp		<=
  405826:	31 f6                           xor esi, esi
  405828:	48 89 c2                        mov rdx, rax
  40582b:	31 ff                           xor edi, edi
  40582d:	31 c0                           xor eax, eax
  40582f:	e8 6c d5 ff ff                  call 0x402da0
  405834:	0f 1f 40 cc                     rlp		<=
  405838:	e9 12 ee ff ff                  jmp 0x40464f

  40584e:	0f 1f 40 cc                     rlp		<=
  405852:	48 85 c0                        test rax, rax
  405855:	0f 85 55 f4 ff ff               jnz 0x404cb0
  40585b:	e9 ef ed ff ff                  jmp 0x40464f

  405876:	0f 1f 40 cc                     rlp		<=
  40587a:	e9 2c ed ff ff                  jmp 0x4045ab

  4058ce:	0f 1f 40 cc                     rlp		<=
  4058d2:	85 c0                           test eax, eax
  4058d4:	0f 85 29 fd ff ff               jnz 0x405603
  4058da:	48 83 3d ce bc 21 00 01         cmp qword [rip+0x21bcce], 0x1
  4058e2:	0f 85 1b fd ff ff               jnz 0x405603
  4058e8:	48 8b 05 c9 bc 21 00            mov rax, [rip+0x21bcc9]
  4058ef:	80 38 6d                        cmp byte [rax], 0x6d
  4058f2:	0f 85 0b fd ff ff               jnz 0x405603
  4058f8:	e9 22 fd ff ff                  jmp 0x40561f

  40590e:	0f 1f 40 cc                     rlp		<=
  405912:	e9 98 ee ff ff                  jmp 0x4047af

  40594c:	0f 1f 40 cc                     rlp		<=
  405950:	31 d2                           xor edx, edx
  405952:	48 89 05 5f c9 21 00            mov [rip+0x21c95f], rax
  405959:	48 89 44 24 40                  mov [rsp+0x40], rax
  40595e:	83 fa 05                        cmp edx, 0x5
  405961:	0f 87 e3 e1 ff ff               ja 0x403b4a
  405967:	89 d0                           mov eax, edx
  405969:	ff 24 c5 68 8e 41 00            jmp qword [rax*8+0x418e68]

  4059df:	0f 1f 40 cc                     rlp		<=
  4059e3:	41 c6 06 00                     mov byte [r14], 0x0
  4059e7:	4c 89 25 a2 bb 21 00            mov [rip+0x21bba2], r12
  4059ee:	4c 89 2d a3 bb 21 00            mov [rip+0x21bba3], r13
  4059f5:	e9 98 f2 ff ff                  jmp 0x404c92

  405a36:	0f 1f 40 cc                     rlp		<=
  405a3a:	48 8b 3d 7f c8 21 00            mov rdi, [rip+0x21c87f]
  405a41:	48 85 ff                        test rdi, rdi
  405a44:	0f 84 21 01 00 00               jz 0x405b6b
  405a4a:	4c 8b 6f 20                     mov r13, [rdi+0x20]
  405a4e:	e8 ad c8 ff ff                  call 0x402300
  405a53:	0f 1f 40 cc                     rlp		<=
  405a57:	4c 89 ef                        mov rdi, r13
  405a5a:	eb e5                           jmp 0x405a41

  405a9a:	0f 1f 40 cc                     rlp		<=
  405a9e:	3c 01                           cmp al, 0x1
  405aa0:	19 d2                           sbb edx, edx
  405aa2:	83 e2 05                        and edx, 0x5
  405aa5:	e9 b4 fe ff ff                  jmp 0x40595e

  405b17:	0f 1f 40 bb                     jlp		<=
  405b1b:	48 8b 44 24 38                  mov rax, [rsp+0x38]
  405b20:	45 31 ff                        xor r15d, r15d
  405b23:	48 8d 50 01                     lea rdx, [rax+0x1]
  405b27:	48 89 54 24 38                  mov [rsp+0x38], rdx
  405b2c:	80 38 3d                        cmp byte [rax], 0x3d
  405b2f:	ba 05 00 00 00                  mov edx, 0x5
  405b34:	0f 85 2d fe ff ff               jnz 0x405967
  405b3a:	eb 1a                           jmp 0x405b56

  405b4a:	0f 1f 40 cc                     rlp		<=
  405b4e:	85 c0                           test eax, eax
  405b50:	0f 84 c2 00 00 00               jz 0x405c18
  405b56:	4a 8b 34 fd 80 98 41 00         mov rsi, [r15*8+0x419880]
  405b5e:	4d 63 f7                        movsxd r14, r15d
  405b61:	48 85 f6                        test rsi, rsi
  405b64:	75 d6                           jnz 0x405b3c
  405b66:	e9 e0 00 00 00                  jmp 0x405c4b

  405b96:	0f 1f 40 cc                     rlp		<=
  405b9a:	85 c0                           test eax, eax
  405b9c:	0f 85 6c f3 ff ff               jnz 0x404f0e
  405ba2:	c6 05 8f c7 21 00 01            mov byte [rip+0x21c78f], 0x1
  405ba9:	e9 60 f3 ff ff                  jmp 0x404f0e

  405c05:	0f 1f 40 cc                     rlp		<=
  405c09:	3c 01                           cmp al, 0x1
  405c0b:	19 d2                           sbb edx, edx
  405c0d:	83 e2 02                        and edx, 0x2
  405c10:	83 c2 03                        add edx, 0x3
  405c13:	e9 46 fd ff ff                  jmp 0x40595e

  405c82:	0f 1f 40 cc                     rlp		<=
  405c86:	ba 05 00 00 00                  mov edx, 0x5
  405c8b:	e9 d7 fc ff ff                  jmp 0x405967

  405c9a:	0f 1f 40 cc                     rlp		<=
  405c9e:	e9 4a fb ff ff                  jmp 0x4057ed

  405cd4:	0f 1f 40 cc                     rlp		<=
  405cd8:	e9 98 f5 ff ff                  jmp 0x405275

  405ce7:	0f 1f 40 cc                     rlp		<=
  405ceb:	e9 0f f5 ff ff                  jmp 0x4051ff

  405d03:	0f 1f 40 cc                     rlp		<=
  405d07:	48 8b 35 8a b8 21 00            mov rsi, [rip+0x21b88a]
  405d0e:	ba 02 00 00 00                  mov edx, 0x2
  405d13:	31 ff                           xor edi, edi
  405d15:	48 89 05 74 b8 21 00            mov [rip+0x21b874], rax
  405d1c:	e8 1f c9 ff ff                  call 0x402640
  405d21:	0f 1f 40 cc                     rlp		<=
  405d25:	48 89 05 6c b8 21 00            mov [rip+0x21b86c], rax
  405d2c:	e9 61 ef ff ff                  jmp 0x404c92

  405df7:	0f 1f 40 cc                     rlp		<=
  405dfb:	eb d2                           jmp 0x405dcf

  405e07:	0f 1f 40 cc                     rlp		<=
  405e0b:	48 85 c0                        test rax, rax
  405e0e:	0f 85 e4 ef ff ff               jnz 0x404df8
  405e14:	e9 f9 ef ff ff                  jmp 0x404e12

  405e23:	0f 1f 40 cc                     rlp		<=
  405e27:	49 89 c4                        mov r12, rax
  405e2a:	48 85 c0                        test rax, rax
  405e2d:	b8 93 9a 41 00                  mov eax, 0x419a93
  405e32:	4c 0f 44 e0                     cmovz r12, rax
  405e36:	e9 bb ed ff ff                  jmp 0x404bf6

  405e45:	0f 1f 40 cc                     rlp		<=
  405e49:	e9 a0 eb ff ff                  jmp 0x4049ee

  405eaa:	0f 1f 40 cc                     rlp		<=
  405eae:	5d                              pop rbp
  405eaf:	c3                              ret

  405eea:	0f 1f 40 cc                     rlp		<=
  405eee:	5d                              pop rbp
  405eef:	c3                              ret

  405f33:	0f 1f 40 cc                     rlp		<=
  405f37:	eb dd                           jmp 0x405f16

  405f3e:	0f 1f 40 cc                     rlp		<=
  405f42:	c6 05 9f b8 21 00 01            mov byte [rip+0x21b89f], 0x1
  405f49:	58                              pop rax
  405f4a:	5b                              pop rbx
  405f4b:	5d                              pop rbp
  405f4c:	c3                              ret

  405f4d:	0f 1f 40 aa                     clp		<=
  405f51:	48 83 3d c7 b0 21 00 00         cmp qword [rip+0x21b0c7], 0x0
  405f59:	55                              push rbp
  405f5a:	48 89 e5                        mov rbp, rsp
  405f5d:	74 15                           jz 0x405f74
  405f5f:	b8 00 00 00 00                  mov eax, 0x0
  405f64:	48 85 c0                        test rax, rax
  405f67:	74 0b                           jz 0x405f74
  405f69:	bf 20 10 62 00                  mov edi, 0x621020
  405f6e:	ff d0                           call rax

  405f70:	0f 1f 40 cc                     rlp		<=
  405f74:	e8 37 ff ff ff                  call 0x405eb0
  405f79:	0f 1f 40 cc                     rlp		<=
  405f7d:	5d                              pop rbp
  405f7e:	c3                              ret

  405f80:	0f 1f 40 aa                     clp		<=
  405f84:	48 8b 07                        mov rax, [rdi]
  405f87:	31 d2                           xor edx, edx
  405f89:	48 f7 f6                        div rsi
  405f8c:	48 89 d0                        mov rax, rdx
  405f8f:	c3                              ret

  405f90:	0f 1f 40 aa                     clp		<=
  405f94:	31 c0                           xor eax, eax
  405f96:	48 8b 16                        mov rdx, [rsi]
  405f99:	48 39 17                        cmp [rdi], rdx
  405f9c:	74 02                           jz 0x405fa0
  405f9e:	f3 c3                           repe ret

  405fb0:	0f 1f 40 aa                     clp		<=
  405fb4:	8b 05 1e c2 21 00               mov eax, [rip+0x21c21e]
  405fba:	85 c0                           test eax, eax
  405fbc:	75 06                           jnz 0x405fc4
  405fbe:	89 3d 14 c2 21 00               mov [rip+0x21c214], edi
  405fc4:	f3 c3                           repe ret

  4060b0:	0f 1f 40 aa                     clp		<=
  4060b4:	48 83 ec 08                     sub rsp, 0x8
  4060b8:	e8 43 c2 ff ff                  call 0x402300
  4060bd:	0f 1f 40 cc                     rlp		<=
  4060c1:	48 83 c4 08                     add rsp, 0x8
  4060c5:	c3                              ret

  406290:	0f 1f 40 bb                     jlp		<=
  406294:	b8 03 00 00 00                  mov eax, 0x3
  406299:	45 31 db                        xor r11d, r11d
  40629c:	0f 1f 40 00                     nop [rax]
  4062a0:	49 83 c0 01                     add r8, 0x1
  4062a4:	83 f8 04                        cmp eax, 0x4
  4062a7:	0f 86 4d fe ff ff               jbe 0x4060fa
  4062ad:	eb 8e                           jmp 0x40623d

  4062b0:	0f 1f 40 bb                     jlp		<=
  4062b4:	41 bb 1b 00 00 00               mov r11d, 0x1b
  4062ba:	66 0f 1f 44 00 00               o16 nop [rax+rax]
  4062c0:	45 88 19                        mov [r9], r11b
  4062c3:	49 83 c2 01                     add r10, 0x1
  4062c7:	49 83 c1 01                     add r9, 0x1
  4062cb:	31 c0                           xor eax, eax
  4062cd:	eb d1                           jmp 0x4062a0

  4062d0:	0f 1f 40 bb                     jlp		<=
  4062d4:	41 bb 20 00 00 00               mov r11d, 0x20
  4062da:	eb e4                           jmp 0x4062c0

  4062e0:	0f 1f 40 bb                     jlp		<=
  4062e4:	b8 06 00 00 00                  mov eax, 0x6
  4062e9:	eb b5                           jmp 0x4062a0

  4062f0:	0f 1f 40 bb                     jlp		<=
  4062f4:	44 8d 58 d0                     lea r11d, [rax-0x30]
  4062f8:	b8 02 00 00 00                  mov eax, 0x2
  4062fd:	eb a1                           jmp 0x4062a0

  406300:	0f 1f 40 bb                     jlp		<=
  406304:	41 bb 7f 00 00 00               mov r11d, 0x7f
  40630a:	eb b4                           jmp 0x4062c0

  406310:	0f 1f 40 bb                     jlp		<=
  406314:	41 bb 07 00 00 00               mov r11d, 0x7
  40631a:	eb a4                           jmp 0x4062c0

  406320:	0f 1f 40 bb                     jlp		<=
  406324:	41 bb 08 00 00 00               mov r11d, 0x8
  40632a:	eb 94                           jmp 0x4062c0

  406330:	0f 1f 40 bb                     jlp		<=
  406334:	41 bb 09 00 00 00               mov r11d, 0x9
  40633a:	eb 84                           jmp 0x4062c0

  406340:	0f 1f 40 bb                     jlp		<=
  406344:	41 bb 0b 00 00 00               mov r11d, 0xb
  40634a:	e9 71 ff ff ff                  jmp 0x4062c0

  406350:	0f 1f 40 bb                     jlp		<=
  406354:	41 bb 0a 00 00 00               mov r11d, 0xa
  40635a:	e9 61 ff ff ff                  jmp 0x4062c0

  406360:	0f 1f 40 bb                     jlp		<=
  406364:	41 bb 0d 00 00 00               mov r11d, 0xd
  40636a:	e9 51 ff ff ff                  jmp 0x4062c0

  406370:	0f 1f 40 bb                     jlp		<=
  406374:	41 bb 0c 00 00 00               mov r11d, 0xc
  40637a:	e9 41 ff ff ff                  jmp 0x4062c0

  406380:	0f 1f 40 bb                     jlp		<=
  406384:	41 89 c3                        mov r11d, eax
  406387:	e9 34 ff ff ff                  jmp 0x4062c0

  4065cc:	0f 1f 40 cc                     rlp		<=
  4065d0:	48 83 c4 08                     add rsp, 0x8
  4065d4:	5b                              pop rbx
  4065d5:	5d                              pop rbp
  4065d6:	c3                              ret

  40660c:	0f 1f 40 cc                     rlp		<=
  406610:	48 8b 2d 39 bd 21 00            mov rbp, [rip+0x21bd39]
  406617:	48 89 05 2a bd 21 00            mov [rip+0x21bd2a], rax
  40661e:	48 8d 44 6d 00                  lea rax, [rbp+rbp*2]
  406623:	48 89 05 16 bd 21 00            mov [rip+0x21bd16], rax
  40662a:	e9 ab fe ff ff                  jmp 0x4064da

  406650:	0f 1f 40 aa                     clp		<=
  406654:	48 83 ec 08                     sub rsp, 0x8
  406658:	48 8b 36                        mov rsi, [rsi]
  40665b:	48 8b 3f                        mov rdi, [rdi]
  40665e:	e8 1d c3 ff ff                  call 0x402980
  406663:	0f 1f 40 cc                     rlp		<=
  406667:	48 83 c4 08                     add rsp, 0x8
  40666b:	c3                              ret

  406670:	0f 1f 40 aa                     clp		<=
  406674:	48 89 f0                        mov rax, rsi
  406677:	48 83 ec 08                     sub rsp, 0x8
  40667b:	48 8b 37                        mov rsi, [rdi]
  40667e:	48 8b 38                        mov rdi, [rax]
  406681:	e8 fa c2 ff ff                  call 0x402980
  406686:	0f 1f 40 cc                     rlp		<=
  40668a:	48 83 c4 08                     add rsp, 0x8
  40668e:	c3                              ret

  4066ba:	0f 1f 40 cc                     rlp		<=
  4066be:	48 83 c4 08                     add rsp, 0x8
  4066c2:	5b                              pop rbx
  4066c3:	5d                              pop rbp
  4066c4:	c3                              ret

  4066d0:	0f 1f 40 aa                     clp		<=
  4066d4:	48 83 ec 08                     sub rsp, 0x8
  4066d8:	48 8b 36                        mov rsi, [rsi]
  4066db:	48 8b 3f                        mov rdi, [rdi]
  4066de:	e8 ad ff ff ff                  call 0x406690
  4066e3:	0f 1f 40 cc                     rlp		<=
  4066e7:	48 83 c4 08                     add rsp, 0x8
  4066eb:	c3                              ret

  4066f0:	0f 1f 40 aa                     clp		<=
  4066f4:	48 89 f0                        mov rax, rsi
  4066f7:	48 83 ec 08                     sub rsp, 0x8
  4066fb:	48 8b 37                        mov rsi, [rdi]
  4066fe:	48 8b 38                        mov rdi, [rax]
  406701:	e8 8a ff ff ff                  call 0x406690
  406706:	0f 1f 40 cc                     rlp		<=
  40670a:	48 83 c4 08                     add rsp, 0x8
  40670e:	c3                              ret

  406710:	0f 1f 40 aa                     clp		<=
  406714:	48 89 f0                        mov rax, rsi
  406717:	48 83 ec 08                     sub rsp, 0x8
  40671b:	48 8b 37                        mov rsi, [rdi]
  40671e:	48 8b 38                        mov rdi, [rax]
  406721:	e8 8a 5d 00 00                  call 0x40c4b0
  406726:	0f 1f 40 cc                     rlp		<=
  40672a:	48 83 c4 08                     add rsp, 0x8
  40672e:	c3                              ret

  406730:	0f 1f 40 aa                     clp		<=
  406734:	48 83 ec 08                     sub rsp, 0x8
  406738:	48 8b 36                        mov rsi, [rsi]
  40673b:	48 8b 3f                        mov rdi, [rdi]
  40673e:	e8 6d 5d 00 00                  call 0x40c4b0
  406743:	0f 1f 40 cc                     rlp		<=
  406747:	48 83 c4 08                     add rsp, 0x8
  40674b:	c3                              ret

  406784:	0f 1f 40 cc                     rlp		<=
  406788:	48 8b 1d c1 bb 21 00            mov rbx, [rip+0x21bbc1]
  40678f:	4c 8d 24 dd f8 ff ff ff         lea r12, [rbx*8-0x8]
  406797:	eb 3f                           jmp 0x4067d8

  406881:	0f 1f 40 cc                     rlp		<=
  406885:	48 8b 7d 08                     mov rdi, [rbp+0x8]
  406889:	e8 72 ba ff ff                  call 0x402300
  40688e:	0f 1f 40 cc                     rlp		<=
  406892:	e9 39 ff ff ff                  jmp 0x4067d0

  4068e1:	0f 1f 40 bb                     jlp		<=
  4068e5:	48 89 15 64 ba 21 00            mov [rip+0x21ba64], rdx
  4068ec:	48 83 c4 08                     add rsp, 0x8
  4068f0:	5b                              pop rbx
  4068f1:	5d                              pop rbp
  4068f2:	41 5c                           pop r12
  4068f4:	41 5d                           pop r13
  4068f6:	41 5e                           pop r14
  4068f8:	41 5f                           pop r15
  4068fa:	c3                              ret

  4068fb:	0f 1f 40 bb                     jlp		<=
  4068ff:	31 d2                           xor edx, edx
  406901:	eb de                           jmp 0x4068e1

  406910:	0f 1f 40 aa                     clp		<=
  406914:	55                              push rbp
  406915:	48 89 f5                        mov rbp, rsi
  406918:	53                              push rbx
  406919:	48 89 fb                        mov rbx, rdi
  40691c:	48 83 ec 08                     sub rsp, 0x8
  406920:	48 39 f7                        cmp rdi, rsi
  406923:	72 56                           jb 0x40697b
  406925:	e9 82 00 00 00                  jmp 0x4069ac

  4069c7:	0f 1f 40 cc                     rlp		<=
  4069cb:	eb a9                           jmp 0x406976

  4069d7:	0f 1f 40 cc                     rlp		<=
  4069db:	48 8b 0d 96 b8 21 00            mov rcx, [rip+0x21b896]
  4069e2:	eb 84                           jmp 0x406968

  406c19:	0f 1f 40 cc                     rlp		<=
  406c1d:	85 c0                           test eax, eax
  406c1f:	0f 84 6b ff ff ff               jz 0x406b90
  406c25:	4d 39 ef                        cmp r15, r13
  406c28:	0f 82 32 ff ff ff               jb 0x406b60
  406c2e:	48 2b 9d a8 df ff ff            sub rbx, [rbp-0x2058]
  406c35:	e9 60 fe ff ff                  jmp 0x406a9a

  406cfc:	0f 1f 40 cc                     rlp		<=
  406d00:	e9 57 fd ff ff                  jmp 0x406a5c

  406d42:	0f 1f 40 bb                     jlp		<=
  406d46:	45 31 e4                        xor r12d, r12d
  406d49:	e9 4c fd ff ff                  jmp 0x406a9a

  406e35:	0f 1f 40 cc                     rlp		<=
  406e39:	eb dc                           jmp 0x406e17

  406ee7:	0f 1f 40 cc                     rlp		<=
  406eeb:	eb c7                           jmp 0x406eb4

  406ef7:	0f 1f 40 cc                     rlp		<=
  406efb:	eb af                           jmp 0x406eac

  406f2c:	0f 1f 40 cc                     rlp		<=
  406f30:	48 83 c4 10                     add rsp, 0x10
  406f34:	5b                              pop rbx
  406f35:	c3                              ret

  406f49:	0f 1f 40 cc                     rlp		<=
  406f4d:	8b 74 24 0c                     mov esi, [rsp+0xc]
  406f51:	eb cc                           jmp 0x406f1f

  406f60:	0f 1f 40 aa                     clp		<=
  406f64:	8b 05 6e b2 21 00               mov eax, [rip+0x21b26e]
  406f6a:	85 c0                           test eax, eax
  406f6c:	75 0f                           jnz 0x406f7d
  406f6e:	8b 05 60 b2 21 00               mov eax, [rip+0x21b260]
  406f74:	83 c0 01                        add eax, 0x1
  406f77:	89 05 57 b2 21 00               mov [rip+0x21b257], eax
  406f7d:	f3 c3                           repe ret

  406fb7:	0f 1f 40 cc                     rlp		<=
  406fbb:	45 84 e4                        test r12b, r12b
  406fbe:	74 10                           jz 0x406fd0
  406fc0:	c7 05 06 b2 21 00 02 00 00 00   mov dword [rip+0x21b206], 0x2
  406fca:	5b                              pop rbx
  406fcb:	5d                              pop rbp
  406fcc:	41 5c                           pop r12
  406fce:	c3                              ret

  40701f:	0f 1f 40 cc                     rlp		<=
  407023:	48 83 c4 08                     add rsp, 0x8
  407027:	f3 c3                           repe ret

  4070a5:	0f 1f 40 cc                     rlp		<=
  4070a9:	48 83 c4 08                     add rsp, 0x8
  4070ad:	c3                              ret

  4070b0:	0f 1f 40 bb                     jlp		<=
  4070b4:	84 d2                           test dl, dl
  4070b6:	75 ab                           jnz 0x407063
  4070b8:	0f 1f 84 00 00 00 00 00         nop [rax+rax]
  4070c0:	b8 ff ff ff ff                  mov eax, 0xffffffff
  4070c5:	c3                              ret

  40714f:	0f 1f 40 cc                     rlp		<=
  407153:	48 83 c4 08                     add rsp, 0x8
  407157:	c3                              ret

  407160:	0f 1f 40 bb                     jlp		<=
  407164:	84 d2                           test dl, dl
  407166:	75 ad                           jnz 0x407115
  407168:	0f 1f 84 00 00 00 00 00         nop [rax+rax]
  407170:	b8 ff ff ff ff                  mov eax, 0xffffffff
  407175:	c3                              ret

  4071ff:	0f 1f 40 cc                     rlp		<=
  407203:	48 83 c4 08                     add rsp, 0x8
  407207:	c3                              ret

  407210:	0f 1f 40 bb                     jlp		<=
  407214:	84 d2                           test dl, dl
  407216:	75 ad                           jnz 0x4071c5
  407218:	0f 1f 84 00 00 00 00 00         nop [rax+rax]
  407220:	b8 ff ff ff ff                  mov eax, 0xffffffff
  407225:	c3                              ret

  40729b:	0f 1f 40 cc                     rlp		<=
  40729f:	48 83 c4 08                     add rsp, 0x8
  4072a3:	c3                              ret

  407306:	0f 1f 40 cc                     rlp		<=
  40730a:	48 83 c4 08                     add rsp, 0x8
  40730e:	c3                              ret

  40738b:	0f 1f 40 cc                     rlp		<=
  40738f:	48 83 c4 08                     add rsp, 0x8
  407393:	c3                              ret

  4073f8:	0f 1f 40 cc                     rlp		<=
  4073fc:	48 83 c4 08                     add rsp, 0x8
  407400:	c3                              ret

  40756a:	0f 1f 40 cc                     rlp		<=
  40756e:	eb e3                           jmp 0x407553

  407682:	0f 1f 40 cc                     rlp		<=
  407686:	48 89 c7                        mov rdi, rax
  407689:	e8 f2 af ff ff                  call 0x402680
  40768e:	0f 1f 40 cc                     rlp		<=
  407692:	48 83 c0 01                     add rax, 0x1
  407696:	e9 29 ff ff ff                  jmp 0x4075c4

  4076ac:	0f 1f 40 cc                     rlp		<=
  4076b0:	48 83 c0 01                     add rax, 0x1
  4076b4:	e9 2f ff ff ff                  jmp 0x4075e8

  4076ce:	0f 1f 40 cc                     rlp		<=
  4076d2:	48 89 c7                        mov rdi, rax
  4076d5:	e8 a6 af ff ff                  call 0x402680
  4076da:	0f 1f 40 cc                     rlp		<=
  4076de:	48 8d 58 01                     lea rbx, [rax+0x1]
  4076e2:	e9 bc fe ff ff                  jmp 0x4075a3

  4079d1:	0f 1f 40 cc                     rlp		<=
  4079d5:	48 89 05 ec a7 21 00            mov [rip+0x21a7ec], rax
  4079dc:	e9 8b fd ff ff                  jmp 0x40776c

  407a88:	0f 1f 40 cc                     rlp		<=
  407a8c:	31 d2                           xor edx, edx
  407a8e:	85 c0                           test eax, eax
  407a90:	0f 49 d0                        cmovns edx, eax
  407a93:	48 83 c4 28                     add rsp, 0x28
  407a97:	5b                              pop rbx
  407a98:	89 d0                           mov eax, edx
  407a9a:	5d                              pop rbp
  407a9b:	c3                              ret

  407afb:	0f 1f 40 cc                     rlp		<=
  407aff:	48 83 c4 08                     add rsp, 0x8
  407b03:	c3                              ret

  407b7b:	0f 1f 40 cc                     rlp		<=
  407b7f:	48 83 c4 08                     add rsp, 0x8
  407b83:	c3                              ret

  407c4c:	0f 1f 40 cc                     rlp		<=
  407c50:	5b                              pop rbx
  407c51:	5d                              pop rbp
  407c52:	41 5c                           pop r12
  407c54:	c3                              ret

  407c58:	0f 1f 40 bb                     jlp		<=
  407c5c:	84 d2                           test dl, dl
  407c5e:	0f 85 75 ff ff ff               jnz 0x407bd9
  407c64:	b8 ff ff ff ff                  mov eax, 0xffffffff
  407c69:	e9 78 ff ff ff                  jmp 0x407be6

  407c70:	0f 1f 40 aa                     clp		<=
  407c74:	48 83 ec 08                     sub rsp, 0x8
  407c78:	48 83 3d 48 99 21 00 00         cmp qword [rip+0x219948], 0x0
  407c80:	74 16                           jz 0x407c98
  407c82:	bf c0 15 62 00                  mov edi, 0x6215c0
  407c87:	e8 44 00 00 00                  call 0x407cd0
  407c8c:	0f 1f 40 cc                     rlp		<=
  407c90:	48 83 c4 08                     add rsp, 0x8
  407c94:	c3                              ret

  407ca2:	0f 1f 40 cc                     rlp		<=
  407ca6:	bf d0 15 62 00                  mov edi, 0x6215d0
  407cab:	e8 20 00 00 00                  call 0x407cd0
  407cb0:	0f 1f 40 cc                     rlp		<=
  407cb4:	bf b0 15 62 00                  mov edi, 0x6215b0
  407cb9:	e8 12 00 00 00                  call 0x407cd0
  407cbe:	0f 1f 40 cc                     rlp		<=
  407cc2:	48 83 c4 08                     add rsp, 0x8
  407cc6:	c3                              ret

  407cf9:	0f 1f 40 cc                     rlp		<=
  407cfd:	48 83 c4 18                     add rsp, 0x18
  407d01:	c3                              ret

  407d19:	0f 1f 40 cc                     rlp		<=
  407d1d:	48 8b 7c 24 08                  mov rdi, [rsp+0x8]
  407d22:	eb bd                           jmp 0x407ce1

  407d30:	0f 1f 40 aa                     clp		<=
  407d34:	53                              push rbx
  407d35:	48 83 c4 80                     add rsp, 0xffffffffffffff80
  407d39:	eb 64                           jmp 0x407d9f

  407dc6:	0f 1f 40 cc                     rlp		<=
  407dca:	bf b0 15 62 00                  mov edi, 0x6215b0
  407dcf:	e8 fc fe ff ff                  call 0x407cd0
  407dd4:	0f 1f 40 cc                     rlp		<=
  407dd8:	e9 63 ff ff ff                  jmp 0x407d40

  407de9:	0f 1f 40 cc                     rlp		<=
  407ded:	0f 1f 00                        nop [rax]
  407df0:	eb 8f                           jmp 0x407d81

  407ec8:	0f 1f 40 cc                     rlp		<=
  407ecc:	85 c0                           test eax, eax
  407ece:	0f 84 e4 02 00 00               jz 0x4081b8
  407ed4:	48 8b 6d 20                     mov rbp, [rbp+0x20]
  407ed8:	48 85 ed                        test rbp, rbp
  407edb:	75 d3                           jnz 0x407eb0
  407edd:	ba 05 00 00 00                  mov edx, 0x5
  407ee2:	e9 9d 00 00 00                  jmp 0x407f84

  4080c4:	0f 1f 40 cc                     rlp		<=
  4080c8:	eb b1                           jmp 0x40807b

  4080e8:	0f 1f 40 cc                     rlp		<=
  4080ec:	48 89 c5                        mov rbp, rax
  4080ef:	48 01 05 c2 a0 21 00            add [rip+0x21a0c2], rax
  4080f6:	e9 72 ff ff ff                  jmp 0x40806d

  40810d:	0f 1f 40 cc                     rlp		<=
  408111:	48 8b 43 18                     mov rax, [rbx+0x18]
  408115:	48 8b 15 9c a0 21 00            mov rdx, [rip+0x21a09c]
  40811c:	e9 44 ff ff ff                  jmp 0x408065

  408135:	0f 1f 40 cc                     rlp		<=
  408139:	48 8b 43 18                     mov rax, [rbx+0x18]
  40813d:	e9 c9 fe ff ff                  jmp 0x40800b

  408152:	0f 1f 40 cc                     rlp		<=
  408156:	bf b0 15 62 00                  mov edi, 0x6215b0
  40815b:	e8 70 fb ff ff                  call 0x407cd0
  408160:	0f 1f 40 cc                     rlp		<=
  408164:	e9 50 fe ff ff                  jmp 0x407fb9

  40818b:	0f 1f 40 cc                     rlp		<=
  40818f:	84 c0                           test al, al
  408191:	74 3d                           jz 0x4081d0
  408193:	ba 10 00 00 00                  mov edx, 0x10
  408198:	e9 e7 fd ff ff                  jmp 0x407f84

  4081a5:	0f 1f 40 cc                     rlp		<=
  4081a9:	41 89 c6                        mov r14d, eax
  4081ac:	e9 36 fe ff ff                  jmp 0x407fe7

  4081e7:	0f 1f 40 cc                     rlp		<=
  4081eb:	84 c0                           test al, al
  4081ed:	74 74                           jz 0x408263
  4081ef:	ba 11 00 00 00                  mov edx, 0x11
  4081f4:	e9 8b fd ff ff                  jmp 0x407f84

  408250:	0f 1f 40 cc                     rlp		<=
  408254:	3c 01                           cmp al, 0x1
  408256:	19 d2                           sbb edx, edx
  408258:	83 e2 f4                        and edx, 0xfffffff4
  40825b:	83 c2 12                        add edx, 0x12
  40825e:	e9 21 fd ff ff                  jmp 0x407f84

  40826d:	0f 1f 40 cc                     rlp		<=
  408271:	84 c0                           test al, al
  408273:	74 13                           jz 0x408288
  408275:	80 bd b8 00 00 00 00            cmp byte [rbp+0xb8], 0x0
  40827c:	74 0a                           jz 0x408288
  40827e:	ba 15 00 00 00                  mov edx, 0x15
  408283:	e9 fc fc ff ff                  jmp 0x407f84

  408298:	0f 1f 40 cc                     rlp		<=
  40829c:	84 c0                           test al, al
  40829e:	74 0a                           jz 0x4082aa
  4082a0:	ba 0e 00 00 00                  mov edx, 0xe
  4082a5:	e9 da fc ff ff                  jmp 0x407f84

  4082aa:	0f 1f 40 bb                     jlp		<=
  4082ae:	48 83 7d 20 01                  cmp qword [rbp+0x20], 0x1
  4082b3:	0f 86 d6 fb ff ff               jbe 0x407e8f
  4082b9:	bf 16 00 00 00                  mov edi, 0x16
  4082be:	e8 fd e0 ff ff                  call 0x4063c0
  4082c3:	0f 1f 40 cc                     rlp		<=
  4082c7:	84 c0                           test al, al
  4082c9:	0f 84 c0 fb ff ff               jz 0x407e8f
  4082cf:	ba 16 00 00 00                  mov edx, 0x16
  4082d4:	e9 ab fc ff ff                  jmp 0x407f84

  4082e3:	0f 1f 40 cc                     rlp		<=
  4082e7:	84 c0                           test al, al
  4082e9:	ba 14 00 00 00                  mov edx, 0x14
  4082ee:	0f 85 90 fc ff ff               jnz 0x407f84
  4082f4:	e9 1a ff ff ff                  jmp 0x408213

  40837b:	0f 1f 40 cc                     rlp		<=
  40837f:	84 c0                           test al, al
  408381:	75 0d                           jnz 0x408390
  408383:	48 83 c4 08                     add rsp, 0x8
  408387:	f3 c3                           repe ret

  40839a:	0f 1f 40 cc                     rlp		<=
  40839e:	bf e0 15 62 00                  mov edi, 0x6215e0
  4083a3:	e8 28 f9 ff ff                  call 0x407cd0
  4083a8:	0f 1f 40 cc                     rlp		<=
  4083ac:	bf b0 15 62 00                  mov edi, 0x6215b0
  4083b1:	e8 1a f9 ff ff                  call 0x407cd0
  4083b6:	0f 1f 40 cc                     rlp		<=
  4083ba:	48 83 c4 08                     add rsp, 0x8
  4083be:	eb c7                           jmp 0x408387

  40842d:	0f 1f 40 cc                     rlp		<=
  408431:	48 81 c4 10 01 00 00            add rsp, 0x110
  408438:	5b                              pop rbx
  408439:	5d                              pop rbp
  40843a:	41 5c                           pop r12
  40843c:	41 5d                           pop r13
  40843e:	41 5e                           pop r14
  408440:	c3                              ret

  408481:	0f 1f 40 cc                     rlp		<=
  408485:	49 8d 76 02                     lea rsi, [r14+0x2]
  408489:	48 89 c7                        mov rdi, rax
  40848c:	e8 6f 9f ff ff                  call 0x402400
  408491:	0f 1f 40 cc                     rlp		<=
  408495:	e9 7a ff ff ff                  jmp 0x408414

  408876:	0f 1f 40 cc                     rlp		<=
  40887a:	48 85 c0                        test rax, rax
  40887d:	74 2c                           jz 0x4088ab
  40887f:	4c 01 e8                        add rax, r13
  408882:	4c 8d 68 01                     lea r13, [rax+0x1]
  408886:	c6 00 20                        mov byte [rax], 0x20
  408889:	c6 40 01 00                     mov byte [rax+0x1], 0x0
  40888d:	eb 75                           jmp 0x408904

  408962:	0f 1f 40 cc                     rlp		<=
  408966:	48 81 c4 a8 12 00 00            add rsp, 0x12a8
  40896d:	5b                              pop rbx
  40896e:	5d                              pop rbp
  40896f:	41 5c                           pop r12
  408971:	41 5d                           pop r13
  408973:	41 5e                           pop r14
  408975:	41 5f                           pop r15
  408977:	c3                              ret

  408a4b:	0f 1f 40 cc                     rlp		<=
  408a4f:	48 83 05 61 97 21 00 02         add qword [rip+0x219761], 0x2
  408a57:	e9 b6 fb ff ff                  jmp 0x408612

  408a6e:	0f 1f 40 cc                     rlp		<=
  408a72:	e9 52 fb ff ff                  jmp 0x4085c9

  408b12:	0f 1f 40 cc                     rlp		<=
  408b16:	e9 4b fe ff ff                  jmp 0x408966

  408b38:	0f 1f 40 cc                     rlp		<=
  408b3c:	80 3d da 97 21 00 00            cmp byte [rip+0x2197da], 0x0
  408b43:	0f 84 43 fb ff ff               jz 0x40868c
  408b49:	48 8b bb a8 00 00 00            mov rdi, [rbx+0xa8]
  408b50:	8b 15 b6 97 21 00               mov edx, [rip+0x2197b6]
  408b56:	31 f6                           xor esi, esi
  408b58:	e8 e3 e2 ff ff                  call 0x406e40
  408b5d:	0f 1f 40 cc                     rlp		<=
  408b61:	e9 26 fb ff ff                  jmp 0x40868c

  408b9d:	0f 1f 40 cc                     rlp		<=
  408ba1:	e9 c9 fa ff ff                  jmp 0x40866f

  408bc5:	0f 1f 40 cc                     rlp		<=
  408bc9:	e9 94 fa ff ff                  jmp 0x408662

  408c10:	0f 1f 40 cc                     rlp		<=
  408c14:	49 89 c6                        mov r14, rax
  408c17:	e9 34 f9 ff ff                  jmp 0x408550

  408ccb:	0f 1f 40 cc                     rlp		<=
  408ccf:	48 63 05 1e 96 21 00            movsxd rax, dword [rip+0x21961e]
  408cd6:	4c 8d 6c 05 01                  lea r13, [rbp+rax+0x1]
  408cdb:	e9 fc fa ff ff                  jmp 0x4087dc

  408cef:	0f 1f 40 cc                     rlp		<=
  408cf3:	49 89 c1                        mov r9, rax
  408cf6:	e9 cb fb ff ff                  jmp 0x4088c6

  408d0f:	0f 1f 40 cc                     rlp		<=
  408d13:	48 8b 15 06 96 21 00            mov rdx, [rip+0x219606]
  408d1a:	4c 8b 05 07 96 21 00            mov r8, [rip+0x219607]
  408d21:	48 8b 74 24 40                  mov rsi, [rsp+0x40]
  408d26:	48 8b 4c 24 48                  mov rcx, [rsp+0x48]
  408d2b:	48 8b 44 24 10                  mov rax, [rsp+0x10]
  408d30:	e9 fe fa ff ff                  jmp 0x408833

  408db1:	0f 1f 40 cc                     rlp		<=
  408db5:	48 8b 74 24 18                  mov rsi, [rsp+0x18]
  408dba:	48 89 c7                        mov rdi, rax
  408dbd:	8b 54 24 10                     mov edx, [rsp+0x10]
  408dc1:	e9 d2 fd ff ff                  jmp 0x408b98

  408dda:	0f 1f 40 cc                     rlp		<=
  408dde:	4c 8b 4c 24 10                  mov r9, [rsp+0x10]
  408de3:	89 05 9b 87 21 00               mov [rip+0x21879b], eax
  408de9:	41 89 c0                        mov r8d, eax
  408dec:	eb 98                           jmp 0x408d86

  408e52:	0f 1f 40 cc                     rlp		<=
  408e56:	48 83 c4 08                     add rsp, 0x8
  408e5a:	f3 c3                           repe ret

  408e60:	0f 1f 40 bb                     jlp		<=
  408e64:	84 d2                           test dl, dl
  408e66:	b8 01 00 00 00                  mov eax, 0x1
  408e6b:	74 ba                           jz 0x408e27
  408e6d:	f3 c3                           repe ret

  408eaf:	0f 1f 40 cc                     rlp		<=
  408eb3:	48 83 c4 08                     add rsp, 0x8
  408eb7:	f3 c3                           repe ret

  408eef:	0f 1f 40 cc                     rlp		<=
  408ef3:	48 83 c4 08                     add rsp, 0x8
  408ef7:	f3 c3                           repe ret

  408f62:	0f 1f 40 cc                     rlp		<=
  408f66:	48 83 c4 08                     add rsp, 0x8
  408f6a:	f3 c3                           repe ret

  408f70:	0f 1f 40 bb                     jlp		<=
  408f74:	84 d2                           test dl, dl
  408f76:	b8 01 00 00 00                  mov eax, 0x1
  408f7b:	74 ba                           jz 0x408f37
  408f7d:	f3 c3                           repe ret

  408ff2:	0f 1f 40 cc                     rlp		<=
  408ff6:	48 83 c4 08                     add rsp, 0x8
  408ffa:	f3 c3                           repe ret

  409000:	0f 1f 40 bb                     jlp		<=
  409004:	84 d2                           test dl, dl
  409006:	b8 01 00 00 00                  mov eax, 0x1
  40900b:	74 ba                           jz 0x408fc7
  40900d:	f3 c3                           repe ret

  409082:	0f 1f 40 cc                     rlp		<=
  409086:	48 83 c4 08                     add rsp, 0x8
  40908a:	f3 c3                           repe ret

  409090:	0f 1f 40 bb                     jlp		<=
  409094:	84 d2                           test dl, dl
  409096:	b8 01 00 00 00                  mov eax, 0x1
  40909b:	74 ba                           jz 0x409057
  40909d:	f3 c3                           repe ret

  4090df:	0f 1f 40 cc                     rlp		<=
  4090e3:	48 83 c4 08                     add rsp, 0x8
  4090e7:	f3 c3                           repe ret

  409121:	0f 1f 40 cc                     rlp		<=
  409125:	48 83 c4 08                     add rsp, 0x8
  409129:	c3                              ret

  409184:	0f 1f 40 cc                     rlp		<=
  409188:	48 83 c4 08                     add rsp, 0x8
  40918c:	c3                              ret

  4091db:	0f 1f 40 cc                     rlp		<=
  4091df:	48 83 c4 08                     add rsp, 0x8
  4091e3:	c3                              ret

  40922e:	0f 1f 40 cc                     rlp		<=
  409232:	48 83 c4 08                     add rsp, 0x8
  409236:	c3                              ret

  40928b:	0f 1f 40 cc                     rlp		<=
  40928f:	48 83 c4 08                     add rsp, 0x8
  409293:	c3                              ret

  4092de:	0f 1f 40 cc                     rlp		<=
  4092e2:	48 83 c4 08                     add rsp, 0x8
  4092e6:	c3                              ret

  4093e5:	0f 1f 40 cc                     rlp		<=
  4093e9:	0f b6 c0                        movzx eax, al
  4093ec:	48 01 c5                        add rbp, rax
  4093ef:	48 81 c4 98 02 00 00            add rsp, 0x298
  4093f6:	48 89 e8                        mov rax, rbp
  4093f9:	5b                              pop rbx
  4093fa:	5d                              pop rbp
  4093fb:	c3                              ret

  409447:	0f 1f 40 cc                     rlp		<=
  40944b:	e9 e9 fe ff ff                  jmp 0x409339

  409450:	0f 1f 40 bb                     jlp		<=
  409454:	48 8b 7b 50                     mov rdi, [rbx+0x50]
  409458:	4c 8b 05 79 8e 21 00            mov r8, [rip+0x218e79]
  40945f:	b9 00 02 00 00                  mov ecx, 0x200
  409464:	8b 15 76 8e 21 00               mov edx, [rip+0x218e76]
  40946a:	48 89 e6                        mov rsi, rsp
  40946d:	e8 2e 47 00 00                  call 0x40dba0
  409472:	0f 1f 40 cc                     rlp		<=
  409476:	48 89 c1                        mov rcx, rax
  409479:	e9 d6 fe ff ff                  jmp 0x409354

  409536:	0f 1f 40 cc                     rlp		<=
  40953a:	48 83 3d 0e 8e 21 00 01         cmp qword [rip+0x218e0e], 0x1
  409542:	48 8b 4c 24 08                  mov rcx, [rsp+0x8]
  409547:	77 6c                           ja 0x4095b5
  409549:	e9 62 ff ff ff                  jmp 0x4094b0

  4095d7:	0f 1f 40 cc                     rlp		<=
  4095db:	eb 96                           jmp 0x409573

  409914:	0f 1f 40 cc                     rlp		<=
  409918:	e9 56 fc ff ff                  jmp 0x409573

  409927:	0f 1f 40 cc                     rlp		<=
  40992b:	e9 a0 fb ff ff                  jmp 0x4094d0

  40993a:	0f 1f 40 cc                     rlp		<=
  40993e:	66 90                           nop
  409940:	e9 69 ff ff ff                  jmp 0x4098ae

  40994f:	0f 1f 40 cc                     rlp		<=
  409953:	e9 2e fe ff ff                  jmp 0x409786

  409962:	0f 1f 40 cc                     rlp		<=
  409966:	e9 a2 fd ff ff                  jmp 0x40970d

  409973:	0f 1f 40 cc                     rlp		<=
  409977:	e9 94 fc ff ff                  jmp 0x409610

  409986:	0f 1f 40 cc                     rlp		<=
  40998a:	e9 05 fd ff ff                  jmp 0x409694

  409ac1:	0f 1f 40 cc                     rlp		<=
  409ac5:	45 84 ff                        test r15b, r15b
  409ac8:	0f 85 db 01 00 00               jnz 0x409ca9
  409ace:	e9 bf 01 00 00                  jmp 0x409c92

  409dcd:	0f 1f 40 cc                     rlp		<=
  409dd1:	84 c0                           test al, al
  409dd3:	48 8b 95 10 fd ff ff            mov rdx, [rbp-0x2f0]
  409dda:	0f 85 67 fc ff ff               jnz 0x409a47
  409de0:	e9 ad fe ff ff                  jmp 0x409c92

  409e69:	0f 1f 40 cc                     rlp		<=
  409e6d:	c7 00 5f 00 00 00               mov dword [rax], 0x5f
  409e73:	4c 89 2d 9e 79 21 00            mov [rip+0x21799e], r13
  409e7a:	41 c6 86 b8 00 00 00 00         mov byte [r14+0xb8], 0x0
  409e82:	e9 a2 fc ff ff                  jmp 0x409b29

  409ebe:	0f 1f 40 cc                     rlp		<=
  409ec2:	48 d1 25 8f 84 21 00            shl qword [rip+0x21848f], 1
  409ec9:	48 89 05 90 84 21 00            mov [rip+0x218490], rax
  409ed0:	49 89 c1                        mov r9, rax
  409ed3:	48 8b 0d 76 84 21 00            mov rcx, [rip+0x218476]
  409eda:	48 8b 95 10 fd ff ff            mov rdx, [rbp-0x2f0]
  409ee1:	e9 ec fa ff ff                  jmp 0x4099d2

  409f00:	0f 1f 40 cc                     rlp		<=
  409f04:	48 89 c7                        mov rdi, rax
  409f07:	e8 74 87 ff ff                  call 0x402680
  409f0c:	0f 1f 40 cc                     rlp		<=
  409f10:	3b 05 02 84 21 00               cmp eax, [rip+0x218402]
  409f16:	0f 8e 76 fd ff ff               jle 0x409c92
  409f1c:	89 05 f6 83 21 00               mov [rip+0x2183f6], eax
  409f22:	e9 6b fd ff ff                  jmp 0x409c92

  40a1c0:	0f 1f 40 cc                     rlp		<=
  40a1c4:	84 c0                           test al, al
  40a1c6:	48 8b 95 10 fd ff ff            mov rdx, [rbp-0x2f0]
  40a1cd:	0f 85 74 f8 ff ff               jnz 0x409a47
  40a1d3:	e9 ff fa ff ff                  jmp 0x409cd7

  40a30f:	0f 1f 40 cc                     rlp		<=
  40a313:	41 8b 46 28                     mov eax, [r14+0x28]
  40a317:	25 00 f0 00 00                  and eax, 0xf000
  40a31c:	3d 00 a0 00 00                  cmp eax, 0xa000
  40a321:	0f 85 81 f8 ff ff               jnz 0x409ba8
  40a327:	44 8b 2d c2 7f 21 00            mov r13d, [rip+0x217fc2]
  40a32e:	41 c7 86 a0 00 00 00 06 00 00 00               mov dword [r14+0xa0], 0x6
  40a339:	e9 87 f8 ff ff                  jmp 0x409bc5

  40a469:	0f 1f 40 cc                     rlp		<=
  40a46d:	3b 05 95 7e 21 00               cmp eax, [rip+0x217e95]
  40a473:	0f 8e bb f7 ff ff               jle 0x409c34
  40a479:	89 05 89 7e 21 00               mov [rip+0x217e89], eax
  40a47f:	e9 b0 f7 ff ff                  jmp 0x409c34

  40a4aa:	0f 1f 40 cc                     rlp		<=
  40a4ae:	31 f6                           xor esi, esi
  40a4b0:	48 89 c7                        mov rdi, rax
  40a4b3:	e8 28 4e 00 00                  call 0x40f2e0
  40a4b8:	0f 1f 40 cc                     rlp		<=
  40a4bc:	3b 05 32 7e 21 00               cmp eax, [rip+0x217e32]
  40a4c2:	0f 8e bb f7 ff ff               jle 0x409c83
  40a4c8:	e9 19 fc ff ff                  jmp 0x40a0e6

  40a4d9:	0f 1f 40 cc                     rlp		<=
  40a4dd:	3b 05 1d 7e 21 00               cmp eax, [rip+0x217e1d]
  40a4e3:	0f 8e 65 f7 ff ff               jle 0x409c4e
  40a4e9:	89 05 11 7e 21 00               mov [rip+0x217e11], eax
  40a4ef:	e9 5a f7 ff ff                  jmp 0x409c4e

  40a4fd:	0f 1f 40 cc                     rlp		<=
  40a501:	49 89 c0                        mov r8, rax
  40a504:	c7 00 5f 00 00 00               mov dword [rax], 0x5f
  40a50a:	e9 59 f6 ff ff                  jmp 0x409b68

  40a5a2:	0f 1f 40 cc                     rlp		<=
  40a5a6:	4c 8b 85 10 fd ff ff            mov r8, [rbp-0x2f0]
  40a5ad:	48 89 c1                        mov rcx, rax
  40a5b0:	ba 8c c0 41 00                  mov edx, 0x41c08c
  40a5b5:	31 ff                           xor edi, edi
  40a5b7:	31 c0                           xor eax, eax
  40a5b9:	41 8b 30                        mov esi, [r8]
  40a5bc:	e8 df 87 ff ff                  call 0x402da0
  40a5c1:	0f 1f 40 cc                     rlp		<=
  40a5c5:	e9 ca f5 ff ff                  jmp 0x409b94

  40a5fe:	0f 1f 40 cc                     rlp		<=
  40a602:	83 38 02                        cmp dword [rax], 0x2
  40a605:	8b 95 10 fd ff ff               mov edx, [rbp-0x2f0]
  40a60b:	0f 94 c0                        setz al
  40a60e:	e9 45 fb ff ff                  jmp 0x40a158

  40a635:	0f 1f 40 cc                     rlp		<=
  40a639:	49 89 c5                        mov r13, rax
  40a63c:	0f 1f 40 00                     nop [rax]
  40a640:	e9 54 fc ff ff                  jmp 0x40a299

  40a667:	0f 1f 40 cc                     rlp		<=
  40a66b:	31 d2                           xor edx, edx
  40a66d:	85 c0                           test eax, eax
  40a66f:	0f 49 d0                        cmovns edx, eax
  40a672:	e9 d2 fd ff ff                  jmp 0x40a449

  40a69b:	0f 1f 40 cc                     rlp		<=
  40a69f:	0f b6 bd 1c fd ff ff            movzx edi, byte [rbp-0x2e4]
  40a6a6:	4c 89 e2                        mov rdx, r12
  40a6a9:	48 89 c6                        mov rsi, rax
  40a6ac:	e8 cf c8 ff ff                  call 0x406f80
  40a6b1:	0f 1f 40 cc                     rlp		<=
  40a6b5:	4d 8b 6e 08                     mov r13, [r14+0x8]
  40a6b9:	4d 85 ed                        test r13, r13
  40a6bc:	0f 85 57 fb ff ff               jnz 0x40a219
  40a6c2:	e9 40 fc ff ff                  jmp 0x40a307

  40a6cf:	0f 1f 40 cc                     rlp		<=
  40a6d3:	49 89 c5                        mov r13, rax
  40a6d6:	e9 be fb ff ff                  jmp 0x40a299

  40a6e0:	0f 1f 40 cc                     rlp		<=
  40a6e4:	c7 00 5f 00 00 00               mov dword [rax], 0x5f
  40a6ea:	e9 8b f7 ff ff                  jmp 0x409e7a

  40a77f:	0f 1f 40 cc                     rlp		<=
  40a783:	48 83 c4 08                     add rsp, 0x8
  40a787:	c3                              ret

  40a825:	0f 1f 40 cc                     rlp		<=
  40a829:	48 83 c4 08                     add rsp, 0x8
  40a82d:	c3                              ret

  40a8c5:	0f 1f 40 cc                     rlp		<=
  40a8c9:	48 83 c4 08                     add rsp, 0x8
  40a8cd:	c3                              ret

  40a95f:	0f 1f 40 cc                     rlp		<=
  40a963:	48 83 c4 08                     add rsp, 0x8
  40a967:	c3                              ret

  40a9ff:	0f 1f 40 cc                     rlp		<=
  40aa03:	48 83 c4 08                     add rsp, 0x8
  40aa07:	c3                              ret

  40aa9f:	0f 1f 40 cc                     rlp		<=
  40aaa3:	48 83 c4 08                     add rsp, 0x8
  40aaa7:	c3                              ret

  40aafb:	0f 1f 40 cc                     rlp		<=
  40aaff:	48 83 c4 08                     add rsp, 0x8
  40ab03:	c3                              ret

  40ab4e:	0f 1f 40 cc                     rlp		<=
  40ab52:	48 83 c4 08                     add rsp, 0x8
  40ab56:	c3                              ret

  40abae:	0f 1f 40 cc                     rlp		<=
  40abb2:	48 83 c4 08                     add rsp, 0x8
  40abb6:	c3                              ret

  40ac0b:	0f 1f 40 cc                     rlp		<=
  40ac0f:	48 83 c4 08                     add rsp, 0x8
  40ac13:	c3                              ret

  40ac61:	0f 1f 40 cc                     rlp		<=
  40ac65:	48 83 c4 08                     add rsp, 0x8
  40ac69:	c3                              ret

  40acc4:	0f 1f 40 cc                     rlp		<=
  40acc8:	48 83 c4 08                     add rsp, 0x8
  40accc:	c3                              ret

  40ad58:	0f 1f 40 cc                     rlp		<=
  40ad5c:	5b                              pop rbx
  40ad5d:	5d                              pop rbp
  40ad5e:	41 5c                           pop r12
  40ad60:	c3                              ret

  40add7:	0f 1f 40 cc                     rlp		<=
  40addb:	5b                              pop rbx
  40addc:	5d                              pop rbp
  40addd:	41 5c                           pop r12
  40addf:	c3                              ret

  40ae85:	0f 1f 40 cc                     rlp		<=
  40ae89:	5b                              pop rbx
  40ae8a:	5d                              pop rbp
  40ae8b:	41 5c                           pop r12
  40ae8d:	c3                              ret

  40af45:	0f 1f 40 cc                     rlp		<=
  40af49:	5b                              pop rbx
  40af4a:	5d                              pop rbp
  40af4b:	41 5c                           pop r12
  40af4d:	c3                              ret

  40afd5:	0f 1f 40 cc                     rlp		<=
  40afd9:	48 83 c4 08                     add rsp, 0x8
  40afdd:	c3                              ret

  40afe0:	0f 1f 40 bb                     jlp		<=
  40afe4:	84 d2                           test dl, dl
  40afe6:	75 ad                           jnz 0x40af95
  40afe8:	0f 1f 84 00 00 00 00 00         nop [rax+rax]
  40aff0:	b8 ff ff ff ff                  mov eax, 0xffffffff
  40aff5:	c3                              ret

  40b07f:	0f 1f 40 cc                     rlp		<=
  40b083:	48 83 c4 08                     add rsp, 0x8
  40b087:	c3                              ret

  40b090:	0f 1f 40 bb                     jlp		<=
  40b094:	84 d2                           test dl, dl
  40b096:	75 ab                           jnz 0x40b043
  40b098:	0f 1f 84 00 00 00 00 00         nop [rax+rax]
  40b0a0:	b8 ff ff ff ff                  mov eax, 0xffffffff
  40b0a5:	c3                              ret

  40b12f:	0f 1f 40 cc                     rlp		<=
  40b133:	48 83 c4 08                     add rsp, 0x8
  40b137:	c3                              ret

  40b140:	0f 1f 40 bb                     jlp		<=
  40b144:	84 d2                           test dl, dl
  40b146:	75 ab                           jnz 0x40b0f3
  40b148:	0f 1f 84 00 00 00 00 00         nop [rax+rax]
  40b150:	b8 ff ff ff ff                  mov eax, 0xffffffff
  40b155:	c3                              ret

  40b1d8:	0f 1f 40 cc                     rlp		<=
  40b1dc:	5b                              pop rbx
  40b1dd:	5d                              pop rbp
  40b1de:	41 5c                           pop r12
  40b1e0:	c3                              ret

  40b258:	0f 1f 40 cc                     rlp		<=
  40b25c:	5b                              pop rbx
  40b25d:	5d                              pop rbp
  40b25e:	41 5c                           pop r12
  40b260:	c3                              ret

  40b31c:	0f 1f 40 cc                     rlp		<=
  40b320:	5b                              pop rbx
  40b321:	5d                              pop rbp
  40b322:	41 5c                           pop r12
  40b324:	c3                              ret

  40b328:	0f 1f 40 bb                     jlp		<=
  40b32c:	84 d2                           test dl, dl
  40b32e:	0f 85 75 ff ff ff               jnz 0x40b2a9
  40b334:	b8 ff ff ff ff                  mov eax, 0xffffffff
  40b339:	e9 78 ff ff ff                  jmp 0x40b2b6

  40b86e:	0f 1f 40 cc                     rlp		<=
  40b872:	48 89 ea                        mov rdx, rbp
  40b875:	48 89 c6                        mov rsi, rax
  40b878:	bf 01 00 00 00                  mov edi, 0x1
  40b87d:	31 c0                           xor eax, eax
  40b87f:	e8 3c 74 ff ff                  call 0x402cc0
  40b884:	0f 1f 40 cc                     rlp		<=
  40b888:	e9 fc fa ff ff                  jmp 0x40b389

  40b8b1:	0f 1f 40 cc                     rlp		<=
  40b8b5:	48 89 ea                        mov rdx, rbp
  40b8b8:	48 89 c6                        mov rsi, rax
  40b8bb:	bf 01 00 00 00                  mov edi, 0x1
  40b8c0:	31 c0                           xor eax, eax
  40b8c2:	e8 f9 73 ff ff                  call 0x402cc0
  40b8c7:	0f 1f 40 cc                     rlp		<=
  40b8cb:	e9 7a ff ff ff                  jmp 0x40b84a

  40b9b8:	0f 1f 40 cc                     rlp		<=
  40b9bc:	48 8b 04 24                     mov rax, [rsp]
  40b9c0:	8b 54 24 0c                     mov edx, [rsp+0xc]
  40b9c4:	89 10                           mov [rax], edx
  40b9c6:	31 c0                           xor eax, eax
  40b9c8:	eb a7                           jmp 0x40b971

  40ba10:	0f 1f 40 aa                     clp		<=
  40ba14:	48 83 ec 08                     sub rsp, 0x8
  40ba18:	bf 01 00 00 00                  mov edi, 0x1
  40ba1d:	e8 1e f9 ff ff                  call 0x40b340
  40ba22:	0f 1f 40 cc                     rlp		<=
  40ba26:	48 83 c4 08                     add rsp, 0x8
  40ba2a:	c3                              ret

  40ba59:	0f 1f 40 cc                     rlp		<=
  40ba5d:	4d 8b 37                        mov r14, [r15]
  40ba60:	4d 85 f6                        test r14, r14
  40ba63:	0f 84 f9 00 00 00               jz 0x40bb62
  40ba69:	49 89 c5                        mov r13, rax
  40ba6c:	c6 44 24 17 00                  mov byte [rsp+0x17], 0x0
  40ba71:	48 c7 44 24 08 ff ff ff ff      mov qword [rsp+0x8], 0xffffffffffffffff
  40ba7a:	31 db                           xor ebx, ebx
  40ba7c:	eb 4e                           jmp 0x40bacc

  40bbd7:	0f 1f 40 cc                     rlp		<=
  40bbdb:	5b                              pop rbx
  40bbdc:	5d                              pop rbp
  40bbdd:	41 5c                           pop r12
  40bbdf:	c3                              ret

  40bbec:	0f 1f 40 cc                     rlp		<=
  40bbf0:	49 89 c4                        mov r12, rax
  40bbf3:	eb a7                           jmp 0x40bb9c

  40bc36:	0f 1f 40 cc                     rlp		<=
  40bc3a:	48 89 c7                        mov rdi, rax
  40bc3d:	48 89 de                        mov rsi, rbx
  40bc40:	31 db                           xor ebx, ebx
  40bc42:	e8 d9 6c ff ff                  call 0x402920
  40bc47:	0f 1f 40 cc                     rlp		<=
  40bc4b:	4d 8b 27                        mov r12, [r15]
  40bc4e:	4d 85 e4                        test r12, r12
  40bc51:	75 4b                           jnz 0x40bc9e
  40bc53:	e9 a0 00 00 00                  jmp 0x40bcf8

  40bd2d:	0f 1f 40 cc                     rlp		<=
  40bd31:	eb e1                           jmp 0x40bd14

  40bd9b:	0f 1f 40 cc                     rlp		<=
  40bd9f:	4c 89 fa                        mov rdx, r15
  40bda2:	48 89 ee                        mov rsi, rbp
  40bda5:	48 89 df                        mov rdi, rbx
  40bda8:	e8 53 fe ff ff                  call 0x40bc00
  40bdad:	0f 1f 40 cc                     rlp		<=
  40bdb1:	41 ff d5                        call r13

  40bdb4:	0f 1f 40 cc                     rlp		<=
  40bdb8:	48 c7 c0 ff ff ff ff            mov rax, 0xffffffffffffffff
  40bdbf:	eb bd                           jmp 0x40bd7e

  40be16:	0f 1f 40 cc                     rlp		<=
  40be1a:	85 c0                           test eax, eax
  40be1c:	75 da                           jnz 0x40bdf8
  40be1e:	5b                              pop rbx
  40be1f:	5d                              pop rbp
  40be20:	4c 89 e0                        mov rax, r12
  40be23:	41 5c                           pop r12
  40be25:	41 5d                           pop r13
  40be27:	41 5e                           pop r14
  40be29:	c3                              ret

  40be30:	0f 1f 40 aa                     clp		<=
  40be34:	48 89 3d 3d 65 21 00            mov [rip+0x21653d], rdi
  40be3b:	c3                              ret

  40be40:	0f 1f 40 aa                     clp		<=
  40be44:	40 88 3d 25 65 21 00            mov [rip+0x216525], dil
  40be4b:	c3                              ret

  40be91:	0f 1f 40 cc                     rlp		<=
  40be95:	85 c0                           test eax, eax
  40be97:	75 5a                           jnz 0x40bef3
  40be99:	48 83 c4 08                     add rsp, 0x8
  40be9d:	5b                              pop rbx
  40be9e:	5d                              pop rbp
  40be9f:	c3                              ret

  40bf03:	0f 1f 40 cc                     rlp		<=
  40bf07:	8b 30                           mov esi, [rax]
  40bf09:	48 89 d9                        mov rcx, rbx
  40bf0c:	ba 8c c0 41 00                  mov edx, 0x41c08c
  40bf11:	31 ff                           xor edi, edi
  40bf13:	31 c0                           xor eax, eax
  40bf15:	e8 86 6e ff ff                  call 0x402da0
  40bf1a:	0f 1f 40 cc                     rlp		<=
  40bf1e:	eb d3                           jmp 0x40bef3

  40bf3b:	0f 1f 40 cc                     rlp		<=
  40bf3f:	48 89 c1                        mov rcx, rax
  40bf42:	48 29 d9                        sub rcx, rbx
  40bf45:	48 39 e9                        cmp rcx, rbp
  40bf48:	76 33                           jbe 0x40bf7d
  40bf4a:	80 78 ff 2f                     cmp byte [rax-0x1], 0x2f
  40bf4e:	48 8d 51 ff                     lea rdx, [rcx-0x1]
  40bf52:	74 1a                           jz 0x40bf6e
  40bf54:	eb 27                           jmp 0x40bf7d

  40c09d:	0f 1f 40 cc                     rlp		<=
  40c0a1:	48 83 f8 01                     cmp rax, 0x1
  40c0a5:	76 0b                           jbe 0x40c0b2
  40c0a7:	80 7c 03 ff 2f                  cmp byte [rbx+rax-0x1], 0x2f
  40c0ac:	48 8d 50 ff                     lea rdx, [rax-0x1]
  40c0b0:	74 06                           jz 0x40c0b8
  40c0b2:	5b                              pop rbx
  40c0b3:	c3                              ret

  40c2a0:	0f 1f 40 aa                     clp		<=
  40c2a4:	8b 7f 18                        mov edi, [rdi+0x18]
  40c2a7:	e8 24 fe ff ff                  call 0x40c0d0
  40c2ac:	0f 1f 40 cc                     rlp		<=
  40c2b0:	c3                              ret

  40c2c0:	0f 1f 40 aa                     clp		<=
  40c2c4:	48 83 ec 08                     sub rsp, 0x8
  40c2c8:	e8 23 00 00 00                  call 0x40c2f0
  40c2cd:	0f 1f 40 cc                     rlp		<=
  40c2d1:	48 85 c0                        test rax, rax
  40c2d4:	74 05                           jz 0x40c2db
  40c2d6:	48 83 c4 08                     add rsp, 0x8
  40c2da:	c3                              ret

  40c410:	0f 1f 40 aa                     clp		<=
  40c414:	48 8b 17                        mov rdx, [rdi]
  40c417:	0f b6 0a                        movzx ecx, byte [rdx]
  40c41a:	84 c9                           test cl, cl
  40c41c:	0f 84 8b 00 00 00               jz 0x40c4ad
  40c422:	45 31 c0                        xor r8d, r8d
  40c425:	31 c0                           xor eax, eax
  40c427:	45 31 d2                        xor r10d, r10d
  40c42a:	eb 2a                           jmp 0x40c456

  40c789:	0f 1f 40 cc                     rlp		<=
  40c78d:	85 c0                           test eax, eax
  40c78f:	4d 89 e2                        mov r10, r12
  40c792:	0f 85 13 fe ff ff               jnz 0x40c5ab
  40c798:	4c 8b 24 24                     mov r12, [rsp]
  40c79c:	4c 8b 54 24 08                  mov r10, [rsp+0x8]
  40c7a1:	49 29 dc                        sub r12, rbx
  40c7a4:	49 29 ea                        sub r10, rbp
  40c7a7:	e9 ff fd ff ff                  jmp 0x40c5ab

  40c848:	0f 1f 40 cc                     rlp		<=
  40c84c:	48 8b 04 24                     mov rax, [rsp]
  40c850:	48 89 03                        mov [rbx], rax
  40c853:	48 8b 44 24 08                  mov rax, [rsp+0x8]
  40c858:	48 69 c0 e8 03 00 00            imul rax, rax, 0x3e8
  40c85f:	48 89 43 08                     mov [rbx+0x8], rax
  40c863:	48 83 c4 10                     add rsp, 0x10
  40c867:	5b                              pop rbx
  40c868:	c3                              ret

  40c960:	0f 1f 40 aa                     clp		<=
  40c964:	48 c1 cf 03                     ror rdi, 0x3
  40c968:	31 d2                           xor edx, edx
  40c96a:	48 89 f8                        mov rax, rdi
  40c96d:	48 f7 f6                        div rsi
  40c970:	48 89 d0                        mov rax, rdx
  40c973:	c3                              ret

  40c980:	0f 1f 40 aa                     clp		<=
  40c984:	48 39 f7                        cmp rdi, rsi
  40c987:	0f 94 c0                        setz al
  40c98a:	c3                              ret

  40c990:	0f 1f 40 aa                     clp		<=
  40c994:	53                              push rbx
  40c995:	48 89 fb                        mov rbx, rdi
  40c998:	48 89 f7                        mov rdi, rsi
  40c99b:	48 8b 73 10                     mov rsi, [rbx+0x10]
  40c99f:	ff 53 30                        call qword [rbx+0x30]

  40c9a2:	0f 1f 40 cc                     rlp		<=
  40c9a6:	48 3b 43 10                     cmp rax, [rbx+0x10]
  40c9aa:	73 09                           jae 0x40c9b5
  40c9ac:	48 c1 e0 04                     shl rax, 0x4
  40c9b0:	48 03 03                        add rax, [rbx]
  40c9b3:	5b                              pop rbx
  40c9b4:	c3                              ret

  40c9dd:	0f 1f 40 cc                     rlp		<=
  40c9e1:	49 89 06                        mov [r14], rax
  40c9e4:	48 8b 30                        mov rsi, [rax]
  40c9e7:	48 89 c3                        mov rbx, rax
  40c9ea:	48 85 f6                        test rsi, rsi
  40c9ed:	74 7c                           jz 0x40ca6b
  40c9ef:	49 39 f4                        cmp r12, rsi
  40c9f2:	74 11                           jz 0x40ca05
  40c9f4:	4c 89 e7                        mov rdi, r12
  40c9f7:	ff 55 38                        call qword [rbp+0x38]

  40ccc0:	0f 1f 40 aa                     clp		<=
  40ccc4:	48 8b 47 10                     mov rax, [rdi+0x10]
  40ccc8:	c3                              ret

  40ccd0:	0f 1f 40 aa                     clp		<=
  40ccd4:	48 8b 47 18                     mov rax, [rdi+0x18]
  40ccd8:	c3                              ret

  40cce0:	0f 1f 40 aa                     clp		<=
  40cce4:	48 8b 47 20                     mov rax, [rdi+0x20]
  40cce8:	c3                              ret

  40ce9d:	0f 1f 40 cc                     rlp		<=
  40cea1:	48 83 c4 08                     add rsp, 0x8
  40cea5:	5b                              pop rbx
  40cea6:	5d                              pop rbp
  40cea7:	41 5c                           pop r12
  40cea9:	41 5d                           pop r13
  40ceab:	c3                              ret

  40cf03:	0f 1f 40 cc                     rlp		<=
  40cf07:	48 89 c3                        mov rbx, rax
  40cf0a:	48 8b 00                        mov rax, [rax]
  40cf0d:	48 85 c0                        test rax, rax
  40cf10:	74 2f                           jz 0x40cf41
  40cf12:	48 89 c6                        mov rsi, rax
  40cf15:	eb 0c                           jmp 0x40cf23

  40cf60:	0f 1f 40 aa                     clp		<=
  40cf64:	48 83 ec 08                     sub rsp, 0x8
  40cf68:	48 83 7f 20 00                  cmp qword [rdi+0x20], 0x0
  40cf6d:	74 27                           jz 0x40cf96
  40cf6f:	48 8b 17                        mov rdx, [rdi]
  40cf72:	48 8b 4f 08                     mov rcx, [rdi+0x8]
  40cf76:	48 39 ca                        cmp rdx, rcx
  40cf79:	72 0e                           jb 0x40cf89
  40cf7b:	eb 20                           jmp 0x40cf9d

  40cfc5:	0f 1f 40 cc                     rlp		<=
  40cfc9:	48 89 c1                        mov rcx, rax
  40cfcc:	48 89 c2                        mov rdx, rax
  40cfcf:	eb 10                           jmp 0x40cfe1

  40d150:	0f 1f 40 aa                     clp		<=
  40d154:	c7 07 00 00 00 00               mov dword [rdi], 0x0
  40d15a:	c7 47 04 00 00 80 3f            mov dword [rdi+0x4], 0x3f800000
  40d161:	c7 47 08 cd cc 4c 3f            mov dword [rdi+0x8], 0x3f4ccccd
  40d168:	c7 47 0c f4 fd b4 3f            mov dword [rdi+0xc], 0x3fb4fdf4
  40d16f:	c6 47 10 00                     mov byte [rdi+0x10], 0x0
  40d173:	c3                              ret

  40d2e8:	0f 1f 40 cc                     rlp		<=
  40d2ec:	48 83 c4 08                     add rsp, 0x8
  40d2f0:	31 c0                           xor eax, eax
  40d2f2:	5b                              pop rbx
  40d2f3:	5d                              pop rbp
  40d2f4:	41 5c                           pop r12
  40d2f6:	41 5d                           pop r13
  40d2f8:	41 5e                           pop r14
  40d2fa:	41 5f                           pop r15
  40d2fc:	c3                              ret

  40d42c:	0f 1f 40 cc                     rlp		<=
  40d430:	48 85 db                        test rbx, rbx
  40d433:	75 eb                           jnz 0x40d420
  40d435:	49 83 c4 10                     add r12, 0x10
  40d439:	4c 39 65 08                     cmp [rbp+0x8], r12
  40d43d:	77 d1                           ja 0x40d410
  40d43f:	48 8b 7d 48                     mov rdi, [rbp+0x48]
  40d443:	48 85 ff                        test rdi, rdi
  40d446:	75 0b                           jnz 0x40d453
  40d448:	eb 1b                           jmp 0x40d465

  40d46e:	0f 1f 40 cc                     rlp		<=
  40d472:	48 89 ef                        mov rdi, rbp
  40d475:	e8 86 4e ff ff                  call 0x402300
  40d47a:	0f 1f 40 cc                     rlp		<=
  40d47e:	5b                              pop rbx
  40d47f:	5d                              pop rbp
  40d480:	41 5c                           pop r12
  40d482:	c3                              ret

  40d4a6:	0f 1f 40 cc                     rlp		<=
  40d4aa:	48 8b 5b 08                     mov rbx, [rbx+0x8]
  40d4ae:	48 85 db                        test rbx, rbx
  40d4b1:	75 ed                           jnz 0x40d4a0
  40d4b3:	48 8b 45 08                     mov rax, [rbp+0x8]
  40d4b7:	49 83 c4 10                     add r12, 0x10
  40d4bb:	4c 39 e0                        cmp rax, r12
  40d4be:	77 d0                           ja 0x40d490
  40d4c0:	e9 3c ff ff ff                  jmp 0x40d401

  40d634:	0f 1f 40 cc                     rlp		<=
  40d638:	48 83 c4 50                     add rsp, 0x50
  40d63c:	89 e8                           mov eax, ebp
  40d63e:	5b                              pop rbx
  40d63f:	5d                              pop rbp
  40d640:	41 5c                           pop r12
  40d642:	c3                              ret

  40d935:	0f 1f 40 cc                     rlp		<=
  40d939:	48 85 c0                        test rax, rax
  40d93c:	0f 85 55 fe ff ff               jnz 0x40d797
  40d942:	b8 ff ff ff ff                  mov eax, 0xffffffff
  40d947:	e9 e6 fd ff ff                  jmp 0x40d732

  40d950:	0f 1f 40 aa                     clp		<=
  40d954:	48 83 ec 08                     sub rsp, 0x8
  40d958:	e8 93 fd ff ff                  call 0x40d6f0
  40d95d:	0f 1f 40 cc                     rlp		<=
  40d961:	48 83 c4 08                     add rsp, 0x8
  40d965:	c3                              ret

  40d986:	0f 1f 40 cc                     rlp		<=
  40d98a:	83 f8 ff                        cmp eax, 0xffffffff
  40d98d:	74 11                           jz 0x40d9a0
  40d98f:	85 c0                           test eax, eax
  40d991:	48 89 d8                        mov rax, rbx
  40d994:	48 0f 44 44 24 08               cmovz rax, [rsp+0x8]
  40d99a:	48 83 c4 10                     add rsp, 0x10
  40d99e:	5b                              pop rbx
  40d99f:	c3                              ret

  40dab4:	0f 1f 40 cc                     rlp		<=
  40dab8:	89 c2                           mov edx, eax
  40daba:	48 89 e8                        mov rax, rbp
  40dabd:	84 d2                           test dl, dl
  40dabf:	0f 85 29 ff ff ff               jnz 0x40d9ee
  40dac5:	48 8b 7b 48                     mov rdi, [rbx+0x48]
  40dac9:	48 85 ff                        test rdi, rdi
  40dacc:	75 05                           jnz 0x40dad3
  40dace:	eb 15                           jmp 0x40dae5

  40dadc:	0f 1f 40 cc                     rlp		<=
  40dae0:	4d 85 e4                        test r12, r12
  40dae3:	75 eb                           jnz 0x40dad0
  40dae5:	48 c7 43 48 00 00 00 00         mov qword [rbx+0x48], 0x0
  40daed:	48 89 e8                        mov rax, rbp
  40daf0:	e9 f9 fe ff ff                  jmp 0x40d9ee

  40dee9:	0f 1f 40 cc                     rlp		<=
  40deed:	4c 89 f7                        mov rdi, r14
  40def0:	45 31 f6                        xor r14d, r14d
  40def3:	e8 88 47 ff ff                  call 0x402680
  40def8:	0f 1f 40 cc                     rlp		<=
  40defc:	49 89 c7                        mov r15, rax
  40deff:	e9 44 01 00 00                  jmp 0x40e048

  40e01b:	0f 1f 40 cc                     rlp		<=
  40e01f:	48 89 df                        mov rdi, rbx
  40e022:	bb ff ff ff ff                  mov ebx, 0xffffffff
  40e027:	e8 54 46 ff ff                  call 0x402680
  40e02c:	0f 1f 40 cc                     rlp		<=
  40e030:	49 89 c7                        mov r15, rax
  40e033:	eb 13                           jmp 0x40e048

  40e173:	0f 1f 40 cc                     rlp		<=
  40e177:	4f 8d 0c 34                     lea r9, [r12+r14]
  40e17b:	4d 89 ec                        mov r12, r13
  40e17e:	4c 8b 6c 24 40                  mov r13, [rsp+0x40]
  40e183:	eb 1b                           jmp 0x40e1a0

  40e1d8:	0f 1f 40 cc                     rlp		<=
  40e1dc:	4d 85 f6                        test r14, r14
  40e1df:	49 89 c1                        mov r9, rax
  40e1e2:	75 a4                           jnz 0x40e188
  40e1e4:	49 89 c4                        mov r12, rax
  40e1e7:	e9 8a fe ff ff                  jmp 0x40e076

  40e76e:	0f 1f 40 cc                     rlp		<=
  40e772:	48 83 f8 01                     cmp rax, 0x1
  40e776:	48 19 d2                        sbb rdx, rdx
  40e779:	31 ed                           xor ebp, ebp
  40e77b:	81 e2 00 02 00 00               and edx, 0x200
  40e781:	48 81 c2 00 02 00 00            add rdx, 0x200
  40e788:	49 89 14 24                     mov [r12], rdx
  40e78c:	e9 eb fe ff ff                  jmp 0x40e67c

  40e7e0:	0f 1f 40 aa                     clp		<=
  40e7e4:	41 54                           push r12
  40e7e6:	55                              push rbp
  40e7e7:	89 fd                           mov ebp, edi
  40e7e9:	53                              push rbx
  40e7ea:	48 8b 1d a7 3b 21 00            mov rbx, [rip+0x213ba7]
  40e7f1:	48 85 db                        test rbx, rbx
  40e7f4:	75 13                           jnz 0x40e809
  40e7f6:	eb 28                           jmp 0x40e820

  40e868:	0f 1f 40 cc                     rlp		<=
  40e86c:	48 8b 05 25 3b 21 00            mov rax, [rip+0x213b25]
  40e873:	48 89 1d 1e 3b 21 00            mov [rip+0x213b1e], rbx
  40e87a:	48 89 43 08                     mov [rbx+0x8], rax
  40e87e:	eb 8d                           jmp 0x40e80d

  40e880:	0f 1f 40 aa                     clp		<=
  40e884:	41 54                           push r12
  40e886:	49 89 fc                        mov r12, rdi
  40e889:	55                              push rbp
  40e88a:	53                              push rbx
  40e88b:	48 8b 1d 06 3b 21 00            mov rbx, [rip+0x213b06]
  40e892:	48 85 db                        test rbx, rbx
  40e895:	74 39                           jz 0x40e8d0
  40e897:	0f b6 2f                        movzx ebp, byte [rdi]
  40e89a:	eb 0d                           jmp 0x40e8a9

  40e8bb:	0f 1f 40 cc                     rlp		<=
  40e8bf:	85 c0                           test eax, eax
  40e8c1:	75 dd                           jnz 0x40e8a0
  40e8c3:	48 89 d8                        mov rax, rbx
  40e8c6:	5b                              pop rbx
  40e8c7:	5d                              pop rbp
  40e8c8:	41 5c                           pop r12
  40e8ca:	c3                              ret

  40e903:	0f 1f 40 cc                     rlp		<=
  40e907:	85 c0                           test eax, eax
  40e909:	75 dd                           jnz 0x40e8e8
  40e90b:	5b                              pop rbx
  40e90c:	5d                              pop rbp
  40e90d:	31 c0                           xor eax, eax
  40e90f:	41 5c                           pop r12
  40e911:	c3                              ret

  40e94f:	0f 1f 40 cc                     rlp		<=
  40e953:	48 85 ed                        test rbp, rbp
  40e956:	74 1c                           jz 0x40e974
  40e958:	8b 45 10                        mov eax, [rbp+0x10]
  40e95b:	89 03                           mov [rbx], eax
  40e95d:	48 8b 05 34 3a 21 00            mov rax, [rip+0x213a34]
  40e964:	48 89 1d 2d 3a 21 00            mov [rip+0x213a2d], rbx
  40e96b:	48 89 43 08                     mov [rbx+0x8], rax
  40e96f:	e9 4f ff ff ff                  jmp 0x40e8c3

  40e990:	0f 1f 40 aa                     clp		<=
  40e994:	41 54                           push r12
  40e996:	55                              push rbp
  40e997:	89 fd                           mov ebp, edi
  40e999:	53                              push rbx
  40e99a:	48 8b 1d e7 39 21 00            mov rbx, [rip+0x2139e7]
  40e9a1:	48 85 db                        test rbx, rbx
  40e9a4:	75 13                           jnz 0x40e9b9
  40e9a6:	eb 28                           jmp 0x40e9d0

  40ea18:	0f 1f 40 cc                     rlp		<=
  40ea1c:	48 8b 05 65 39 21 00            mov rax, [rip+0x213965]
  40ea23:	48 89 1d 5e 39 21 00            mov [rip+0x21395e], rbx
  40ea2a:	48 89 43 08                     mov [rbx+0x8], rax
  40ea2e:	eb 8d                           jmp 0x40e9bd

  40ea30:	0f 1f 40 aa                     clp		<=
  40ea34:	41 54                           push r12
  40ea36:	49 89 fc                        mov r12, rdi
  40ea39:	55                              push rbp
  40ea3a:	53                              push rbx
  40ea3b:	48 8b 1d 46 39 21 00            mov rbx, [rip+0x213946]
  40ea42:	48 85 db                        test rbx, rbx
  40ea45:	74 39                           jz 0x40ea80
  40ea47:	0f b6 2f                        movzx ebp, byte [rdi]
  40ea4a:	eb 0d                           jmp 0x40ea59

  40ea6b:	0f 1f 40 cc                     rlp		<=
  40ea6f:	85 c0                           test eax, eax
  40ea71:	75 dd                           jnz 0x40ea50
  40ea73:	48 89 d8                        mov rax, rbx
  40ea76:	5b                              pop rbx
  40ea77:	5d                              pop rbp
  40ea78:	41 5c                           pop r12
  40ea7a:	c3                              ret

  40eab3:	0f 1f 40 cc                     rlp		<=
  40eab7:	85 c0                           test eax, eax
  40eab9:	75 dd                           jnz 0x40ea98
  40eabb:	5b                              pop rbx
  40eabc:	5d                              pop rbp
  40eabd:	31 c0                           xor eax, eax
  40eabf:	41 5c                           pop r12
  40eac1:	c3                              ret

  40eaff:	0f 1f 40 cc                     rlp		<=
  40eb03:	48 85 ed                        test rbp, rbp
  40eb06:	74 1c                           jz 0x40eb24
  40eb08:	8b 45 10                        mov eax, [rbp+0x10]
  40eb0b:	89 03                           mov [rbx], eax
  40eb0d:	48 8b 05 74 38 21 00            mov rax, [rip+0x213874]
  40eb14:	48 89 1d 6d 38 21 00            mov [rip+0x21386d], rbx
  40eb1b:	48 89 43 08                     mov [rbx+0x8], rax
  40eb1f:	e9 4f ff ff ff                  jmp 0x40ea73

  40ed2b:	0f 1f 40 cc                     rlp		<=
  40ed2f:	4d 85 e4                        test r12, r12
  40ed32:	48 89 c2                        mov rdx, rax
  40ed35:	49 8d 74 24 ff                  lea rsi, [r12-0x1]
  40ed3a:	48 8b 4c 24 18                  mov rcx, [rsp+0x18]
  40ed3f:	74 25                           jz 0x40ed66
  40ed41:	48 39 c3                        cmp rbx, rax
  40ed44:	76 20                           jbe 0x40ed66
  40ed46:	31 c0                           xor eax, eax
  40ed48:	eb 0f                           jmp 0x40ed59

  40edf1:	0f 1f 40 cc                     rlp		<=
  40edf5:	48 83 f8 ff                     cmp rax, 0xffffffffffffffff
  40edf9:	75 25                           jnz 0x40ee20
  40edfb:	f6 c3 01                        test bl, 0x1
  40edfe:	0f 85 e1 01 00 00               jnz 0x40efe5
  40ee04:	48 c7 44 24 10 00 00 00 00      mov qword [rsp+0x10], 0x0
  40ee0d:	31 ed                           xor ebp, ebp
  40ee0f:	49 c7 c4 ff ff ff ff            mov r12, 0xffffffffffffffff
  40ee16:	e9 54 ff ff ff                  jmp 0x40ed6f

  40ef89:	0f 1f 40 cc                     rlp		<=
  40ef8d:	48 89 6c 24 08                  mov [rsp+0x8], rbp
  40ef92:	49 89 c6                        mov r14, rax
  40ef95:	e9 e6 fc ff ff                  jmp 0x40ec80

  40efa9:	0f 1f 40 cc                     rlp		<=
  40efad:	4c 63 f8                        movsxd r15, eax
  40efb0:	49 8b 04 24                     mov rax, [r12]
  40efb4:	4c 39 f8                        cmp rax, r15
  40efb7:	0f 83 e3 fd ff ff               jae 0x40eda0
  40efbd:	48 8d 45 01                     lea rax, [rbp+0x1]
  40efc1:	48 89 44 24 20                  mov [rsp+0x20], rax
  40efc6:	e9 25 ff ff ff                  jmp 0x40eef0

  40f0c8:	0f 1f 40 cc                     rlp		<=
  40f0cc:	eb de                           jmp 0x40f0ac

  40f0db:	0f 1f 40 cc                     rlp		<=
  40f0df:	90                              nop
  40f0e0:	eb ca                           jmp 0x40f0ac

  40f111:	0f 1f 40 cc                     rlp		<=
  40f115:	48 83 f8 01                     cmp rax, 0x1
  40f119:	0f 86 21 01 00 00               jbe 0x40f240
  40f11f:	4c 39 ed                        cmp rbp, r13
  40f122:	0f 83 ab 01 00 00               jae 0x40f2d3
  40f128:	45 89 fe                        mov r14d, r15d
  40f12b:	45 31 e4                        xor r12d, r12d
  40f12e:	41 83 e7 01                     and r15d, 0x1
  40f132:	41 83 e6 02                     and r14d, 0x2
  40f136:	eb 24                           jmp 0x40f15c

  40f202:	0f 1f 40 cc                     rlp		<=
  40f206:	85 c0                           test eax, eax
  40f208:	75 89                           jnz 0x40f193
  40f20a:	41 81 fc ff ff ff 7f            cmp r12d, 0x7fffffff
  40f211:	74 7d                           jz 0x40f290
  40f213:	41 83 c4 01                     add r12d, 0x1
  40f217:	e9 77 ff ff ff                  jmp 0x40f193

  40f24e:	0f 1f 40 cc                     rlp		<=
  40f252:	44 89 fe                        mov esi, r15d
  40f255:	48 8b 08                        mov rcx, [rax]
  40f258:	31 c0                           xor eax, eax
  40f25a:	83 e6 02                        and esi, 0x2
  40f25d:	eb 09                           jmp 0x40f268

  40f305:	0f 1f 40 cc                     rlp		<=
  40f309:	48 83 c4 08                     add rsp, 0x8
  40f30d:	5b                              pop rbx
  40f30e:	5d                              pop rbp
  40f30f:	c3                              ret

  40f3d1:	0f 1f 40 cc                     rlp		<=
  40f3d5:	4c 8b 23                        mov r12, [rbx]
  40f3d8:	4d 8b 6d 00                     mov r13, [r13]
  40f3dc:	48 c7 44 24 10 00 00 00 00      mov qword [rsp+0x10], 0x0
  40f3e5:	eb 24                           jmp 0x40f40b

  40f413:	0f 1f 40 cc                     rlp		<=
  40f417:	85 c0                           test eax, eax
  40f419:	7f d5                           jg 0x40f3f0
  40f41b:	48 83 44 24 10 01               add qword [rsp+0x10], 0x1
  40f421:	4d 89 67 f8                     mov [r15-0x8], r12
  40f425:	48 8b 44 24 10                  mov rax, [rsp+0x10]
  40f42a:	48 39 44 24 20                  cmp [rsp+0x20], rax
  40f42f:	0f 84 c5 00 00 00               jz 0x40f4fa
  40f435:	4c 8b 24 c3                     mov r12, [rbx+rax*8]
  40f439:	eb cc                           jmp 0x40f407

  40f4e7:	0f 1f 40 cc                     rlp		<=
  40f4eb:	48 83 c4 38                     add rsp, 0x38
  40f4ef:	5b                              pop rbx
  40f4f0:	5d                              pop rbp
  40f4f1:	41 5c                           pop r12
  40f4f3:	41 5d                           pop r13
  40f4f5:	41 5e                           pop r14
  40f4f7:	41 5f                           pop r15
  40f4f9:	c3                              ret

  40f526:	0f 1f 40 cc                     rlp		<=
  40f52a:	48 8b 44 24 18                  mov rax, [rsp+0x18]
  40f52f:	4c 8b 20                        mov r12, [rax]
  40f532:	e9 14 ff ff ff                  jmp 0x40f44b

  40f580:	0f 1f 40 aa                     clp		<=
  40f584:	48 8d 04 f7                     lea rax, [rdi+rsi*8]
  40f588:	48 83 ec 08                     sub rsp, 0x8
  40f58c:	48 89 d1                        mov rcx, rdx
  40f58f:	48 89 c2                        mov rdx, rax
  40f592:	e8 79 fd ff ff                  call 0x40f310
  40f597:	0f 1f 40 cc                     rlp		<=
  40f59b:	48 83 c4 08                     add rsp, 0x8
  40f59f:	c3                              ret

  40f636:	0f 1f 40 cc                     rlp		<=
  40f63a:	e8 21 2d ff ff                  call 0x402360
  40f63f:	90                              nop
  40f640:	0f 1f 40 aa                     clp		<=
  40f644:	31 c0                           xor eax, eax
  40f646:	c3                              ret

  40fb29:	0f 1f 40 cc                     rlp		<=
  40fb2d:	48 81 c4 a8 00 00 00            add rsp, 0xa8
  40fb34:	5b                              pop rbx
  40fb35:	5d                              pop rbp
  40fb36:	41 5c                           pop r12
  40fb38:	41 5d                           pop r13
  40fb3a:	41 5e                           pop r14
  40fb3c:	41 5f                           pop r15
  40fb3e:	c3                              ret

  40fb40:	0f 1f 40 bb                     jlp		<=
  40fb44:	b8 72 00 00 00                  mov eax, 0x72
  40fb49:	83 7c 24 2c 02                  cmp dword [rsp+0x2c], 0x2
  40fb4e:	0f 84 09 07 00 00               jz 0x41025d
  40fb54:	80 7c 24 18 00                  cmp byte [rsp+0x18], 0x0
  40fb59:	0f 84 21 fe ff ff               jz 0x40f980
  40fb5f:	41 89 c4                        mov r12d, eax
  40fb62:	e9 5a fe ff ff                  jmp 0x40f9c1

  40fb70:	0f 1f 40 bb                     jlp		<=
  40fb74:	b8 62 00 00 00                  mov eax, 0x62
  40fb79:	eb d9                           jmp 0x40fb54

  40fb80:	0f 1f 40 bb                     jlp		<=
  40fb84:	b8 66 00 00 00                  mov eax, 0x66
  40fb89:	eb c9                           jmp 0x40fb54

  40fb90:	0f 1f 40 bb                     jlp		<=
  40fb94:	b8 76 00 00 00                  mov eax, 0x76
  40fb99:	eb b9                           jmp 0x40fb54

  40fba0:	0f 1f 40 bb                     jlp		<=
  40fba4:	b8 6e 00 00 00                  mov eax, 0x6e
  40fba9:	eb 9e                           jmp 0x40fb49

  40fbb0:	0f 1f 40 bb                     jlp		<=
  40fbb4:	b8 74 00 00 00                  mov eax, 0x74
  40fbb9:	eb 8e                           jmp 0x40fb49

  40fbc0:	0f 1f 40 bb                     jlp		<=
  40fbc4:	b8 61 00 00 00                  mov eax, 0x61
  40fbc9:	eb 89                           jmp 0x40fb54

  40fc50:	0f 1f 40 bb                     jlp		<=
  40fc54:	80 7c 24 18 00                  cmp byte [rsp+0x18], 0x0
  40fc59:	74 10                           jz 0x40fc6b
  40fc5b:	80 7c 24 2b 00                  cmp byte [rsp+0x2b], 0x0
  40fc60:	74 09                           jz 0x40fc6b
  40fc62:	45 84 ff                        test r15b, r15b
  40fc65:	0f 85 73 fd ff ff               jnz 0x40f9de
  40fc6b:	44 89 e0                        mov eax, r12d
  40fc6e:	e9 d6 fe ff ff                  jmp 0x40fb49

  40fe50:	0f 1f 40 bb                     jlp		<=
  40fe54:	c6 44 24 2b 01                  mov byte [rsp+0x2b], 0x1
  40fe59:	c6 44 24 18 01                  mov byte [rsp+0x18], 0x1
  40fe5e:	41 be 01 00 00 00               mov r14d, 0x1
  40fe64:	48 c7 44 24 50 2b c2 41 00      mov qword [rsp+0x50], 0x41c22b
  40fe6d:	31 db                           xor ebx, ebx
  40fe6f:	c7 44 24 2c 03 00 00 00         mov dword [rsp+0x2c], 0x3
  40fe77:	e9 d4 f9 ff ff                  jmp 0x40f850

  40fe80:	0f 1f 40 bb                     jlp		<=
  40fe84:	c6 44 24 2b 00                  mov byte [rsp+0x2b], 0x0
  40fe89:	c6 44 24 18 01                  mov byte [rsp+0x18], 0x1
  40fe8e:	45 31 f6                        xor r14d, r14d
  40fe91:	48 c7 44 24 50 00 00 00 00      mov qword [rsp+0x50], 0x0
  40fe9a:	31 db                           xor ebx, ebx
  40fe9c:	e9 af f9 ff ff                  jmp 0x40f850

  40fea8:	0f 1f 40 bb                     jlp		<=
  40feac:	c6 44 24 2b 01                  mov byte [rsp+0x2b], 0x1
  40feb1:	c6 44 24 18 00                  mov byte [rsp+0x18], 0x0
  40feb6:	41 be 01 00 00 00               mov r14d, 0x1
  40febc:	48 c7 44 24 50 f3 d2 41 00      mov qword [rsp+0x50], 0x41d2f3
  40fec5:	31 db                           xor ebx, ebx
  40fec7:	c7 44 24 2c 02 00 00 00         mov dword [rsp+0x2c], 0x2
  40fecf:	e9 7c f9 ff ff                  jmp 0x40f850

  40ff6e:	0f 1f 40 cc                     rlp		<=
  40ff72:	49 89 c6                        mov r14, rax
  40ff75:	48 8b 84 24 f0 00 00 00         mov rax, [rsp+0xf0]
  40ff7d:	c6 44 24 18 01                  mov byte [rsp+0x18], 0x1
  40ff82:	4c 8b 5c 24 30                  mov r11, [rsp+0x30]
  40ff87:	48 89 44 24 50                  mov [rsp+0x50], rax
  40ff8c:	e9 bf f8 ff ff                  jmp 0x40f850

  40fff4:	0f 1f 40 cc                     rlp		<=
  40fff8:	85 c0                           test eax, eax
  40fffa:	4c 8b 44 24 38                  mov r8, [rsp+0x38]
  40ffff:	4c 8b 54 24 40                  mov r10, [rsp+0x40]
  410004:	4c 8b 4c 24 48                  mov r9, [rsp+0x48]
  410009:	75 1d                           jnz 0x410028
  41000b:	80 7c 24 2b 00                  cmp byte [rsp+0x2b], 0x0
  410010:	0f 85 ca fa ff ff               jnz 0x40fae0
  410016:	41 bb 01 00 00 00               mov r11d, 0x1
  41001c:	e9 8a f8 ff ff                  jmp 0x40f8ab

  410201:	0f 1f 40 cc                     rlp		<=
  410205:	4c 8b 54 24 60                  mov r10, [rsp+0x60]
  41020a:	49 89 c6                        mov r14, rax
  41020d:	4c 8b 44 24 48                  mov r8, [rsp+0x48]
  410212:	44 8b 5c 24 40                  mov r11d, [rsp+0x40]
  410217:	4c 8b 4c 24 38                  mov r9, [rsp+0x38]
  41021c:	e9 25 fe ff ff                  jmp 0x410046

  410548:	0f 1f 40 cc                     rlp		<=
  41054c:	49 89 c4                        mov r12, rax
  41054f:	48 89 05 42 12 21 00            mov [rip+0x211242], rax
  410556:	e9 c7 fe ff ff                  jmp 0x410422

  410590:	0f 1f 40 cc                     rlp		<=
  410594:	44 89 23                        mov [rbx], r12d
  410597:	5b                              pop rbx
  410598:	5d                              pop rbp
  410599:	41 5c                           pop r12
  41059b:	c3                              ret

  4105a0:	0f 1f 40 aa                     clp		<=
  4105a4:	48 85 ff                        test rdi, rdi
  4105a7:	b8 c0 24 62 00                  mov eax, 0x6224c0
  4105ac:	48 0f 45 c7                     cmovnz rax, rdi
  4105b0:	8b 00                           mov eax, [rax]
  4105b2:	c3                              ret

  4105c0:	0f 1f 40 aa                     clp		<=
  4105c4:	b8 c0 24 62 00                  mov eax, 0x6224c0
  4105c9:	48 85 ff                        test rdi, rdi
  4105cc:	48 0f 45 c7                     cmovnz rax, rdi
  4105d0:	89 30                           mov [rax], esi
  4105d2:	c3                              ret

  410620:	0f 1f 40 aa                     clp		<=
  410624:	48 85 ff                        test rdi, rdi
  410627:	b8 c0 24 62 00                  mov eax, 0x6224c0
  41062c:	48 0f 44 f8                     cmovz rdi, rax
  410630:	8b 47 04                        mov eax, [rdi+0x4]
  410633:	89 77 04                        mov [rdi+0x4], esi
  410636:	c3                              ret

  4106f2:	0f 1f 40 cc                     rlp		<=
  4106f6:	44 89 65 00                     mov [rbp], r12d
  4106fa:	48 83 c4 28                     add rsp, 0x28
  4106fe:	5b                              pop rbx
  4106ff:	5d                              pop rbp
  410700:	41 5c                           pop r12
  410702:	41 5d                           pop r13
  410704:	41 5e                           pop r14
  410706:	41 5f                           pop r15
  410708:	c3                              ret

  410810:	0f 1f 40 aa                     clp		<=
  410814:	48 83 ec 08                     sub rsp, 0x8
  410818:	48 89 d1                        mov rcx, rdx
  41081b:	31 d2                           xor edx, edx
  41081d:	e8 ee fe ff ff                  call 0x410710
  410822:	0f 1f 40 cc                     rlp		<=
  410826:	48 83 c4 08                     add rsp, 0x8
  41082a:	c3                              ret

  4108b4:	0f 1f 40 cc                     rlp		<=
  4108b8:	48 c7 05 d5 0e 21 00 a0 17 62 00               mov qword [rip+0x210ed5], 0x6217a0
  4108c3:	5b                              pop rbx
  4108c4:	5d                              pop rbp
  4108c5:	c7 05 e1 0e 21 00 01 00 00 00   mov dword [rip+0x210ee1], 0x1
  4108cf:	41 5c                           pop r12
  4108d1:	c3                              ret

  4108e0:	0f 1f 40 aa                     clp		<=
  4108e4:	48 83 ec 08                     sub rsp, 0x8
  4108e8:	b9 c0 24 62 00                  mov ecx, 0x6224c0
  4108ed:	48 c7 c2 ff ff ff ff            mov rdx, 0xffffffffffffffff
  4108f4:	e8 97 fa ff ff                  call 0x410390
  4108f9:	0f 1f 40 cc                     rlp		<=
  4108fd:	48 83 c4 08                     add rsp, 0x8
  410901:	c3                              ret

  410910:	0f 1f 40 aa                     clp		<=
  410914:	48 83 ec 08                     sub rsp, 0x8
  410918:	b9 c0 24 62 00                  mov ecx, 0x6224c0
  41091d:	e8 6e fa ff ff                  call 0x410390
  410922:	0f 1f 40 cc                     rlp		<=
  410926:	48 83 c4 08                     add rsp, 0x8
  41092a:	c3                              ret

  410930:	0f 1f 40 aa                     clp		<=
  410934:	48 83 ec 08                     sub rsp, 0x8
  410938:	48 89 fe                        mov rsi, rdi
  41093b:	b9 c0 24 62 00                  mov ecx, 0x6224c0
  410940:	48 c7 c2 ff ff ff ff            mov rdx, 0xffffffffffffffff
  410947:	31 ff                           xor edi, edi
  410949:	e8 42 fa ff ff                  call 0x410390
  41094e:	0f 1f 40 cc                     rlp		<=
  410952:	48 83 c4 08                     add rsp, 0x8
  410956:	c3                              ret

  410960:	0f 1f 40 aa                     clp		<=
  410964:	48 83 ec 08                     sub rsp, 0x8
  410968:	48 89 f2                        mov rdx, rsi
  41096b:	b9 c0 24 62 00                  mov ecx, 0x6224c0
  410970:	48 89 fe                        mov rsi, rdi
  410973:	31 ff                           xor edi, edi
  410975:	e8 16 fa ff ff                  call 0x410390
  41097a:	0f 1f 40 cc                     rlp		<=
  41097e:	48 83 c4 08                     add rsp, 0x8
  410982:	c3                              ret

  4109bf:	0f 1f 40 cc                     rlp		<=
  4109c3:	48 83 c4 48                     add rsp, 0x48
  4109c7:	5b                              pop rbx
  4109c8:	5d                              pop rbp
  4109c9:	c3                              ret

  410a00:	0f 1f 40 cc                     rlp		<=
  410a04:	48 83 c4 40                     add rsp, 0x40
  410a08:	5b                              pop rbx
  410a09:	5d                              pop rbp
  410a0a:	41 5c                           pop r12
  410a0c:	c3                              ret

  410a10:	0f 1f 40 aa                     clp		<=
  410a14:	48 83 ec 08                     sub rsp, 0x8
  410a18:	48 89 f2                        mov rdx, rsi
  410a1b:	89 fe                           mov esi, edi
  410a1d:	31 ff                           xor edi, edi
  410a1f:	e8 6c ff ff ff                  call 0x410990
  410a24:	0f 1f 40 cc                     rlp		<=
  410a28:	48 83 c4 08                     add rsp, 0x8
  410a2c:	c3                              ret

  410a30:	0f 1f 40 aa                     clp		<=
  410a34:	48 83 ec 08                     sub rsp, 0x8
  410a38:	48 89 d1                        mov rcx, rdx
  410a3b:	48 89 f2                        mov rdx, rsi
  410a3e:	89 fe                           mov esi, edi
  410a40:	31 ff                           xor edi, edi
  410a42:	e8 89 ff ff ff                  call 0x4109d0
  410a47:	0f 1f 40 cc                     rlp		<=
  410a4b:	48 83 c4 08                     add rsp, 0x8
  410a4f:	c3                              ret

  410ae5:	0f 1f 40 cc                     rlp		<=
  410ae9:	48 83 c4 48                     add rsp, 0x48
  410aed:	c3                              ret

  410af0:	0f 1f 40 aa                     clp		<=
  410af4:	48 83 ec 08                     sub rsp, 0x8
  410af8:	40 0f be d6                     movsx edx, sil
  410afc:	48 c7 c6 ff ff ff ff            mov rsi, 0xffffffffffffffff
  410b03:	e8 48 ff ff ff                  call 0x410a50
  410b08:	0f 1f 40 cc                     rlp		<=
  410b0c:	48 83 c4 08                     add rsp, 0x8
  410b10:	c3                              ret

  410b20:	0f 1f 40 aa                     clp		<=
  410b24:	48 83 ec 08                     sub rsp, 0x8
  410b28:	ba 3a 00 00 00                  mov edx, 0x3a
  410b2d:	48 c7 c6 ff ff ff ff            mov rsi, 0xffffffffffffffff
  410b34:	e8 17 ff ff ff                  call 0x410a50
  410b39:	0f 1f 40 cc                     rlp		<=
  410b3d:	48 83 c4 08                     add rsp, 0x8
  410b41:	c3                              ret

  410b50:	0f 1f 40 aa                     clp		<=
  410b54:	48 83 ec 08                     sub rsp, 0x8
  410b58:	ba 3a 00 00 00                  mov edx, 0x3a
  410b5d:	e8 ee fe ff ff                  call 0x410a50
  410b62:	0f 1f 40 cc                     rlp		<=
  410b66:	48 83 c4 08                     add rsp, 0x8
  410b6a:	c3                              ret

  410bf3:	0f 1f 40 cc                     rlp		<=
  410bf7:	48 83 c4 40                     add rsp, 0x40
  410bfb:	5b                              pop rbx
  410bfc:	5d                              pop rbp
  410bfd:	41 5c                           pop r12
  410bff:	c3                              ret

  410c00:	0f 1f 40 aa                     clp		<=
  410c04:	48 83 ec 08                     sub rsp, 0x8
  410c08:	49 c7 c0 ff ff ff ff            mov r8, 0xffffffffffffffff
  410c0f:	e8 5c ff ff ff                  call 0x410b70
  410c14:	0f 1f 40 cc                     rlp		<=
  410c18:	48 83 c4 08                     add rsp, 0x8
  410c1c:	c3                              ret

  410c3f:	0f 1f 40 cc                     rlp		<=
  410c43:	48 83 c4 08                     add rsp, 0x8
  410c47:	c3                              ret

  410c6b:	0f 1f 40 cc                     rlp		<=
  410c6f:	48 83 c4 08                     add rsp, 0x8
  410c73:	c3                              ret

  410c80:	0f 1f 40 aa                     clp		<=
  410c84:	48 83 ec 08                     sub rsp, 0x8
  410c88:	b9 60 17 62 00                  mov ecx, 0x621760
  410c8d:	e8 fe f6 ff ff                  call 0x410390
  410c92:	0f 1f 40 cc                     rlp		<=
  410c96:	48 83 c4 08                     add rsp, 0x8
  410c9a:	c3                              ret

  410ca0:	0f 1f 40 aa                     clp		<=
  410ca4:	48 83 ec 08                     sub rsp, 0x8
  410ca8:	48 89 f2                        mov rdx, rsi
  410cab:	b9 60 17 62 00                  mov ecx, 0x621760
  410cb0:	48 89 fe                        mov rsi, rdi
  410cb3:	31 ff                           xor edi, edi
  410cb5:	e8 d6 f6 ff ff                  call 0x410390
  410cba:	0f 1f 40 cc                     rlp		<=
  410cbe:	48 83 c4 08                     add rsp, 0x8
  410cc2:	c3                              ret

  410cd0:	0f 1f 40 aa                     clp		<=
  410cd4:	48 83 ec 08                     sub rsp, 0x8
  410cd8:	b9 60 17 62 00                  mov ecx, 0x621760
  410cdd:	48 c7 c2 ff ff ff ff            mov rdx, 0xffffffffffffffff
  410ce4:	e8 a7 f6 ff ff                  call 0x410390
  410ce9:	0f 1f 40 cc                     rlp		<=
  410ced:	48 83 c4 08                     add rsp, 0x8
  410cf1:	c3                              ret

  410d00:	0f 1f 40 aa                     clp		<=
  410d04:	48 83 ec 08                     sub rsp, 0x8
  410d08:	48 89 fe                        mov rsi, rdi
  410d0b:	b9 60 17 62 00                  mov ecx, 0x621760
  410d10:	48 c7 c2 ff ff ff ff            mov rdx, 0xffffffffffffffff
  410d17:	31 ff                           xor edi, edi
  410d19:	e8 72 f6 ff ff                  call 0x410390
  410d1e:	0f 1f 40 cc                     rlp		<=
  410d22:	48 83 c4 08                     add rsp, 0x8
  410d26:	c3                              ret

  41123d:	0f 1f 40 cc                     rlp		<=
  411241:	48 8b 4c 24 18                  mov rcx, [rsp+0x18]
  411246:	4c 8b 44 24 28                  mov r8, [rsp+0x28]
  41124b:	49 01 cc                        add r12, rcx
  41124e:	49 01 dd                        add r13, rbx
  411251:	e9 0e fc ff ff                  jmp 0x410e64

  411265:	0f 1f 40 cc                     rlp		<=
  411269:	4c 8b 44 24 28                  mov r8, [rsp+0x28]
  41126e:	48 8b 4c 24 18                  mov rcx, [rsp+0x18]
  411273:	eb d6                           jmp 0x41124b

  411282:	0f 1f 40 cc                     rlp		<=
  411286:	48 8b 4c 24 28                  mov rcx, [rsp+0x28]
  41128b:	4c 8b 44 24 18                  mov r8, [rsp+0x18]
  411290:	e9 7a fe ff ff                  jmp 0x41110f

  41129a:	0f 1f 40 cc                     rlp		<=
  41129e:	4c 8b 44 24 18                  mov r8, [rsp+0x18]
  4112a3:	48 8b 4c 24 28                  mov rcx, [rsp+0x28]
  4112a8:	e9 62 fe ff ff                  jmp 0x41110f

  4112bd:	0f 1f 40 cc                     rlp		<=
  4112c1:	4c 8b 44 24 18                  mov r8, [rsp+0x18]
  4112c6:	44 8b 4c 24 28                  mov r9d, [rsp+0x28]
  4112cb:	48 8b 4c 24 30                  mov rcx, [rsp+0x30]
  4112d0:	e9 4b ff ff ff                  jmp 0x411220

  41138c:	0f 1f 40 bb                     jlp		<=
  411390:	83 f9 45                        cmp ecx, 0x45
  411393:	0f 84 f7 fd ff ff               jz 0x411190
  411399:	48 8b 44 24 10                  mov rax, [rsp+0x10]
  41139e:	c7 44 24 18 02 00 00 00         mov dword [rsp+0x18], 0x2
  4113a6:	44 8b 40 0c                     mov r8d, [rax+0xc]
  4113aa:	e9 69 ff ff ff                  jmp 0x411318

  41146c:	0f 1f 40 bb                     jlp		<=
  411470:	84 c0                           test al, al
  411472:	b8 01 00 00 00                  mov eax, 0x1
  411477:	44 0f 45 c8                     cmovnz r9d, eax
  41147b:	85 c9                           test ecx, ecx
  41147d:	0f 85 0d fd ff ff               jnz 0x411190
  411483:	e9 e3 fc ff ff                  jmp 0x41116b

  411488:	0f 1f 40 bb                     jlp		<=
  41148c:	83 f9 45                        cmp ecx, 0x45
  41148f:	0f 84 fb fc ff ff               jz 0x411190
  411495:	48 8b 44 24 10                  mov rax, [rsp+0x10]
  41149a:	c7 44 24 18 01 00 00 00         mov dword [rsp+0x18], 0x1
  4114a2:	44 8b 40 18                     mov r8d, [rax+0x18]
  4114a6:	e9 6d fe ff ff                  jmp 0x411318

  41158c:	0f 1f 40 cc                     rlp		<=
  411590:	4c 8b 44 24 18                  mov r8, [rsp+0x18]
  411595:	4d 01 fc                        add r12, r15
  411598:	4d 01 c5                        add r13, r8
  41159b:	49 89 d8                        mov r8, rbx
  41159e:	e9 c1 f8 ff ff                  jmp 0x410e64

  41183c:	0f 1f 40 cc                     rlp		<=
  411840:	4c 8b 44 24 18                  mov r8, [rsp+0x18]
  411845:	4c 8b 54 24 28                  mov r10, [rsp+0x28]
  41184a:	49 01 dc                        add r12, rbx
  41184d:	4d 01 d5                        add r13, r10
  411850:	e9 0f f6 ff ff                  jmp 0x410e64

  411a0b:	0f 1f 40 cc                     rlp		<=
  411a0f:	4c 8b 54 24 38                  mov r10, [rsp+0x38]
  411a14:	4d 01 d4                        add r12, r10
  411a17:	4d 01 fd                        add r13, r15
  411a1a:	49 89 d8                        mov r8, rbx
  411a1d:	e9 42 f4 ff ff                  jmp 0x410e64

  411a22:	0f 1f 40 bb                     jlp		<=
  411a26:	85 c9                           test ecx, ecx
  411a28:	0f 85 62 f7 ff ff               jnz 0x411190
  411a2e:	48 c7 44 24 18 08 c7 41 00      mov qword [rsp+0x18], 0x41c708
  411a37:	e9 fc fe ff ff                  jmp 0x411938

  411a94:	0f 1f 40 cc                     rlp		<=
  411a98:	41 c6 04 24 09                  mov byte [r12], 0x9
  411a9d:	49 83 c4 01                     add r12, 0x1
  411aa1:	e9 71 ff ff ff                  jmp 0x411a17

  411c22:	0f 1f 40 cc                     rlp		<=
  411c26:	41 c6 04 24 0a                  mov byte [r12], 0xa
  411c2b:	49 83 c4 01                     add r12, 0x1
  411c2f:	e9 e3 fd ff ff                  jmp 0x411a17

  411c34:	0f 1f 40 bb                     jlp		<=
  411c38:	83 f9 45                        cmp ecx, 0x45
  411c3b:	0f 84 4f f5 ff ff               jz 0x411190
  411c41:	48 8b 44 24 10                  mov rax, [rsp+0x10]
  411c46:	c7 44 24 18 02 00 00 00         mov dword [rsp+0x18], 0x2
  411c4e:	44 8b 40 08                     mov r8d, [rax+0x8]
  411c52:	e9 c1 f6 ff ff                  jmp 0x411318

  411e6c:	0f 1f 40 bb                     jlp		<=
  411e70:	bf 70 00 00 00                  mov edi, 0x70
  411e75:	be 70 00 00 00                  mov esi, 0x70
  411e7a:	41 bf 01 00 00 00               mov r15d, 0x1
  411e80:	84 c0                           test al, al
  411e82:	ba 00 00 00 00                  mov edx, 0x0
  411e87:	b8 01 00 00 00                  mov eax, 0x1
  411e8c:	44 0f 45 ca                     cmovnz r9d, edx
  411e90:	44 0f 45 f8                     cmovnz r15d, eax
  411e94:	e9 4b f1 ff ff                  jmp 0x410fe4

  411f1d:	0f 1f 40 bb                     jlp		<=
  411f21:	83 f9 45                        cmp ecx, 0x45
  411f24:	0f 84 66 f2 ff ff               jz 0x411190
  411f2a:	48 8b 44 24 10                  mov rax, [rsp+0x10]
  411f2f:	c7 44 24 18 02 00 00 00         mov dword [rsp+0x18], 0x2
  411f37:	44 8b 40 04                     mov r8d, [rax+0x4]
  411f3b:	e9 d8 f3 ff ff                  jmp 0x411318

  411f40:	0f 1f 40 bb                     jlp		<=
  411f44:	83 f9 45                        cmp ecx, 0x45
  411f47:	0f 84 43 f2 ff ff               jz 0x411190
  411f4d:	44 8b 44 24 40                  mov r8d, [rsp+0x40]
  411f52:	c7 44 24 18 02 00 00 00         mov dword [rsp+0x18], 0x2
  411f5a:	e9 b9 f3 ff ff                  jmp 0x411318

  411f5f:	0f 1f 40 bb                     jlp		<=
  411f63:	48 c7 44 24 18 1a c7 41 00      mov qword [rsp+0x18], 0x41c71a
  411f6c:	e9 c7 f9 ff ff                  jmp 0x411938

  411f71:	0f 1f 40 bb                     jlp		<=
  411f75:	83 f9 45                        cmp ecx, 0x45
  411f78:	0f 84 12 f2 ff ff               jz 0x411190
  411f7e:	44 8b 44 24 40                  mov r8d, [rsp+0x40]
  411f83:	e9 e8 f3 ff ff                  jmp 0x411370

  411f88:	0f 1f 40 bb                     jlp		<=
  411f8c:	83 f9 45                        cmp ecx, 0x45
  411f8f:	0f 84 fb f1 ff ff               jz 0x411190
  411f95:	48 8b 44 24 10                  mov rax, [rsp+0x10]
  411f9a:	44 8b 40 08                     mov r8d, [rax+0x8]
  411f9e:	e9 cd f3 ff ff                  jmp 0x411370

  411fd9:	0f 1f 40 bb                     jlp		<=
  411fdd:	48 c7 44 24 18 db 9b 41 00      mov qword [rsp+0x18], 0x419bdb
  411fe6:	e9 4d f9 ff ff                  jmp 0x411938

  412021:	0f 1f 40 bb                     jlp		<=
  412025:	83 f9 45                        cmp ecx, 0x45
  412028:	0f 84 62 f1 ff ff               jz 0x411190
  41202e:	48 8b 44 24 10                  mov rax, [rsp+0x10]
  412033:	c7 44 24 18 02 00 00 00         mov dword [rsp+0x18], 0x2
  41203b:	44 8b 00                        mov r8d, [rax]
  41203e:	e9 d5 f2 ff ff                  jmp 0x411318

  412043:	0f 1f 40 bb                     jlp		<=
  412047:	0f b6 43 01                     movzx eax, byte [rbx+0x1]
  41204b:	3c 3a                           cmp al, 0x3a
  41204d:	0f 84 91 04 00 00               jz 0x4124e4
  412053:	48 8d 53 01                     lea rdx, [rbx+0x1]
  412057:	41 bf 01 00 00 00               mov r15d, 0x1
  41205d:	3c 7a                           cmp al, 0x7a
  41205f:	0f 85 2b f1 ff ff               jnz 0x411190
  412065:	48 89 d3                        mov rbx, rdx
  412068:	e9 49 f3 ff ff                  jmp 0x4113b6

  4120d1:	0f 1f 40 cc                     rlp		<=
  4120d5:	0f b6 3b                        movzx edi, byte [rbx]
  4120d8:	41 88 3c 24                     mov [r12], dil
  4120dc:	49 83 c4 01                     add r12, 0x1
  4120e0:	e9 32 f9 ff ff                  jmp 0x411a17

  4120e5:	0f 1f 40 bb                     jlp		<=
  4120e9:	45 31 ff                        xor r15d, r15d
  4120ec:	e9 8f fd ff ff                  jmp 0x411e80

  4120f1:	0f 1f 40 bb                     jlp		<=
  4120f5:	4c 8d 43 ff                     lea r8, [rbx-0x1]
  4120f9:	0f b6 7b ff                     movzx edi, byte [rbx-0x1]
  4120fd:	e9 53 f3 ff ff                  jmp 0x411455

  412102:	0f 1f 40 bb                     jlp		<=
  412106:	49 89 d8                        mov r8, rbx
  412109:	e9 47 f3 ff ff                  jmp 0x411455

  412135:	0f 1f 40 cc                     rlp		<=
  412139:	4c 8b 54 24 28                  mov r10, [rsp+0x28]
  41213e:	4c 8b 44 24 18                  mov r8, [rsp+0x18]
  412143:	e9 02 f7 ff ff                  jmp 0x41184a

  4123f3:	0f 1f 40 cc                     rlp		<=
  4123f7:	4c 8b 44 24 18                  mov r8, [rsp+0x18]
  4123fc:	44 8b 4c 24 28                  mov r9d, [rsp+0x28]
  412401:	4c 8b 54 24 30                  mov r10, [rsp+0x30]
  412406:	e9 10 f4 ff ff                  jmp 0x41181b

  41241b:	0f 1f 40 cc                     rlp		<=
  41241f:	4c 8b 44 24 18                  mov r8, [rsp+0x18]
  412424:	44 8b 4c 24 28                  mov r9d, [rsp+0x28]
  412429:	48 8b 4c 24 30                  mov rcx, [rsp+0x30]
  41242e:	e9 a2 ec ff ff                  jmp 0x4110d5

  412488:	0f 1f 40 cc                     rlp		<=
  41248c:	4c 8b 54 24 38                  mov r10, [rsp+0x38]
  412491:	e9 46 f5 ff ff                  jmp 0x4119dc

  4124a3:	0f 1f 40 cc                     rlp		<=
  4124a7:	4c 8b 44 24 18                  mov r8, [rsp+0x18]
  4124ac:	e9 e4 f0 ff ff                  jmp 0x411595

  412534:	0f 1f 40 cc                     rlp		<=
  412538:	4c 8b 44 24 18                  mov r8, [rsp+0x18]
  41253d:	e9 53 f0 ff ff                  jmp 0x411595

  41269d:	0f 1f 40 cc                     rlp		<=
  4126a1:	44 8b 5c 24 30                  mov r11d, [rsp+0x30]
  4126a6:	44 8b 4c 24 38                  mov r9d, [rsp+0x38]
  4126ab:	44 8b 44 24 50                  mov r8d, [rsp+0x50]
  4126b0:	48 8b 4c 24 58                  mov rcx, [rsp+0x58]
  4126b5:	44 8b 54 24 60                  mov r10d, [rsp+0x60]
  4126ba:	e9 95 f0 ff ff                  jmp 0x411754

  4126f7:	0f 1f 40 cc                     rlp		<=
  4126fb:	e9 98 f3 ff ff                  jmp 0x411a98

  412710:	0f 1f 40 cc                     rlp		<=
  412714:	e9 0d f5 ff ff                  jmp 0x411c26

  412752:	0f 1f 40 cc                     rlp		<=
  412756:	44 8b 4c 24 18                  mov r9d, [rsp+0x18]
  41275b:	8b 4c 24 28                     mov ecx, [rsp+0x28]
  41275f:	4c 8b 44 24 30                  mov r8, [rsp+0x30]
  412764:	e9 fd ed ff ff                  jmp 0x411566

  412779:	0f 1f 40 cc                     rlp		<=
  41277d:	0f b6 3b                        movzx edi, byte [rbx]
  412780:	e9 53 f9 ff ff                  jmp 0x4120d8

  412795:	0f 1f 40 cc                     rlp		<=
  412799:	4c 03 64 24 30                  add r12, [rsp+0x30]
  41279e:	44 8b 5c 24 38                  mov r11d, [rsp+0x38]
  4127a3:	44 8b 4c 24 50                  mov r9d, [rsp+0x50]
  4127a8:	4c 8b 44 24 58                  mov r8, [rsp+0x58]
  4127ad:	48 8b 4c 24 60                  mov rcx, [rsp+0x60]
  4127b2:	44 8b 54 24 68                  mov r10d, [rsp+0x68]
  4127b7:	e9 f6 fa ff ff                  jmp 0x4122b2

  412802:	0f 1f 40 cc                     rlp		<=
  412806:	48 83 c4 18                     add rsp, 0x18
  41280a:	c3                              ret

  412899:	0f 1f 40 cc                     rlp		<=
  41289d:	48 89 ee                        mov rsi, rbp
  4128a0:	48 89 c7                        mov rdi, rax
  4128a3:	e8 78 00 ff ff                  call 0x402920
  4128a8:	0f 1f 40 cc                     rlp		<=
  4128ac:	49 83 fc 09                     cmp r12, 0x9
  4128b0:	0f 87 fa 03 00 00               ja 0x412cb0
  4128b6:	42 ff 24 e5 f8 cd 41 00         jmp qword [r12*8+0x41cdf8]

  412943:	0f 1f 40 cc                     rlp		<=
  412947:	66 0f 1f 84 00 00 00 00 00      o16 nop [rax+rax]
  412950:	48 83 c4 58                     add rsp, 0x58
  412954:	5b                              pop rbx
  412955:	5d                              pop rbp
  412956:	41 5c                           pop r12
  412958:	41 5d                           pop r13
  41295a:	41 5e                           pop r14
  41295c:	41 5f                           pop r15
  41295e:	c3                              ret

  4129f6:	0f 1f 40 cc                     rlp		<=
  4129fa:	48 83 c4 58                     add rsp, 0x58
  4129fe:	5b                              pop rbx
  4129ff:	5d                              pop rbp
  412a00:	41 5c                           pop r12
  412a02:	41 5d                           pop r13
  412a04:	41 5e                           pop r14
  412a06:	41 5f                           pop r15
  412a08:	c3                              ret

  412a38:	0f 1f 40 cc                     rlp		<=
  412a3c:	48 89 d9                        mov rcx, rbx
  412a3f:	48 89 c2                        mov rdx, rax
  412a42:	be 01 00 00 00                  mov esi, 0x1
  412a47:	48 89 ef                        mov rdi, rbp
  412a4a:	31 c0                           xor eax, eax
  412a4c:	e8 af 04 ff ff                  call 0x402f00
  412a51:	0f 1f 40 cc                     rlp		<=
  412a55:	e9 f6 fe ff ff                  jmp 0x412950

  412a98:	0f 1f 40 cc                     rlp		<=
  412a9c:	e9 af fe ff ff                  jmp 0x412950

  412ae7:	0f 1f 40 cc                     rlp		<=
  412aeb:	e9 60 fe ff ff                  jmp 0x412950

  412b37:	0f 1f 40 cc                     rlp		<=
  412b3b:	e9 10 fe ff ff                  jmp 0x412950

  412b90:	0f 1f 40 cc                     rlp		<=
  412b94:	e9 b7 fd ff ff                  jmp 0x412950

  412c00:	0f 1f 40 cc                     rlp		<=
  412c04:	e9 47 fd ff ff                  jmp 0x412950

  412c80:	0f 1f 40 cc                     rlp		<=
  412c84:	e9 c7 fc ff ff                  jmp 0x412950

  412ca7:	0f 1f 40 cc                     rlp		<=
  412cab:	e9 a2 fb ff ff                  jmp 0x412852

  412d28:	0f 1f 40 cc                     rlp		<=
  412d2c:	48 83 c4 08                     add rsp, 0x8
  412d30:	c3                              ret

  412d40:	0f 1f 40 aa                     clp		<=
  412d44:	48 83 ec 58                     sub rsp, 0x58
  412d48:	45 31 c9                        xor r9d, r9d
  412d4b:	eb 26                           jmp 0x412d73

  412da0:	0f 1f 40 cc                     rlp		<=
  412da4:	48 83 c4 58                     add rsp, 0x58
  412da8:	c3                              ret

  412e31:	0f 1f 40 cc                     rlp		<=
  412e35:	48 81 c4 d8 00 00 00            add rsp, 0xd8
  412e3c:	c3                              ret

  412ebc:	0f 1f 40 cc                     rlp		<=
  412ec0:	48 89 de                        mov rsi, rbx
  412ec3:	48 89 c7                        mov rdi, rax
  412ec6:	e8 55 fa fe ff                  call 0x402920
  412ecb:	0f 1f 40 cc                     rlp		<=
  412ecf:	5b                              pop rbx
  412ed0:	c3                              ret

  412ee0:	0f 1f 40 aa                     clp		<=
  412ee4:	53                              push rbx
  412ee5:	48 89 fb                        mov rbx, rdi
  412ee8:	e8 33 fc fe ff                  call 0x402b20
  412eed:	0f 1f 40 cc                     rlp		<=
  412ef1:	48 85 c0                        test rax, rax
  412ef4:	74 02                           jz 0x412ef8
  412ef6:	5b                              pop rbx
  412ef7:	c3                              ret

  412f32:	0f 1f 40 cc                     rlp		<=
  412f36:	48 83 c4 08                     add rsp, 0x8
  412f3a:	c3                              ret

  412f40:	0f 1f 40 aa                     clp		<=
  412f44:	48 83 ec 08                     sub rsp, 0x8
  412f48:	e8 93 ff ff ff                  call 0x412ee0
  412f4d:	0f 1f 40 cc                     rlp		<=
  412f51:	48 83 c4 08                     add rsp, 0x8
  412f55:	c3                              ret

  412f75:	0f 1f 40 cc                     rlp		<=
  412f79:	48 85 c0                        test rax, rax
  412f7c:	74 1f                           jz 0x412f9d
  412f7e:	5b                              pop rbx
  412f7f:	90                              nop
  412f80:	c3                              ret

  412f95:	0f 1f 40 cc                     rlp		<=
  412f99:	31 c0                           xor eax, eax
  412f9b:	5b                              pop rbx
  412f9c:	c3                              ret

  412fd5:	0f 1f 40 cc                     rlp		<=
  412fd9:	48 83 c4 08                     add rsp, 0x8
  412fdd:	c3                              ret

  413030:	0f 1f 40 cc                     rlp		<=
  413034:	48 83 c4 08                     add rsp, 0x8
  413038:	c3                              ret

  4130a4:	0f 1f 40 cc                     rlp		<=
  4130a8:	48 83 c4 08                     add rsp, 0x8
  4130ac:	c3                              ret

  4130c7:	0f 1f 40 cc                     rlp		<=
  4130cb:	48 83 c4 08                     add rsp, 0x8
  4130cf:	c3                              ret

  4130ed:	0f 1f 40 cc                     rlp		<=
  4130f1:	48 89 da                        mov rdx, rbx
  4130f4:	31 f6                           xor esi, esi
  4130f6:	48 89 c7                        mov rdi, rax
  4130f9:	e8 e2 f6 fe ff                  call 0x4027e0
  4130fe:	0f 1f 40 cc                     rlp		<=
  413102:	5b                              pop rbx
  413103:	c3                              ret

  413110:	0f 1f 40 aa                     clp		<=
  413114:	48 83 ec 08                     sub rsp, 0x8
  413118:	e8 23 f8 fe ff                  call 0x402940
  41311d:	0f 1f 40 cc                     rlp		<=
  413121:	48 85 c0                        test rax, rax
  413124:	74 05                           jz 0x41312b
  413126:	48 83 c4 08                     add rsp, 0x8
  41312a:	c3                              ret

  41316a:	0f 1f 40 cc                     rlp		<=
  41316e:	48 83 c4 08                     add rsp, 0x8
  413172:	5b                              pop rbx
  413173:	5d                              pop rbp
  413174:	c3                              ret

  41318d:	0f 1f 40 cc                     rlp		<=
  413191:	48 8d 70 01                     lea rsi, [rax+0x1]
  413195:	48 89 df                        mov rdi, rbx
  413198:	e8 a3 ff ff ff                  call 0x413140
  41319d:	0f 1f 40 cc                     rlp		<=
  4131a1:	5b                              pop rbx
  4131a2:	c3                              ret

  41322e:	0f 1f 40 cc                     rlp		<=
  413232:	48 8b 10                        mov rdx, [rax]
  413235:	48 89 e8                        mov rax, rbp
  413238:	eb 0d                           jmp 0x413247

  41338a:	0f 1f 40 cc                     rlp		<=
  41338e:	48 85 c0                        test rax, rax
  413391:	8b 54 24 08                     mov edx, [rsp+0x8]
  413395:	0f 85 6d ff ff ff               jnz 0x413308
  41339b:	e9 b8 fe ff ff                  jmp 0x413258

  4133a0:	0f 1f 40 bb                     jlp		<=
  4133a4:	89 e8                           mov eax, ebp
  4133a6:	49 89 5d 00                     mov [r13], rbx
  4133aa:	83 c8 02                        or eax, 0x2
  4133ad:	e9 ab fe ff ff                  jmp 0x41325d

  4133b2:	0f 1f 40 bb                     jlp		<=
  4133b6:	31 d2                           xor edx, edx
  4133b8:	09 d5                           or ebp, edx
  4133ba:	49 01 ce                        add r14, rcx
  4133bd:	89 e8                           mov eax, ebp
  4133bf:	4d 89 37                        mov [r15], r14
  4133c2:	83 c8 02                        or eax, 0x2
  4133c5:	41 80 3e 00                     cmp byte [r14], 0x0
  4133c9:	0f 45 e8                        cmovnz ebp, eax
  4133cc:	e9 ee fe ff ff                  jmp 0x4132bf

  4133d1:	0f 1f 40 bb                     jlp		<=
  4133d5:	48 85 db                        test rbx, rbx
  4133d8:	0f 88 50 02 00 00               js 0x41362e
  4133de:	48 01 db                        add rbx, rbx
  4133e1:	31 d2                           xor edx, edx
  4133e3:	eb d3                           jmp 0x4133b8

  4133e5:	0f 1f 40 bb                     jlp		<=
  4133e9:	48 b8 ff ff ff ff ff ff 7f 00   mov rax, 0x7fffffffffffff
  4133f3:	48 39 c3                        cmp rbx, rax
  4133f6:	0f 87 32 02 00 00               ja 0x41362e
  4133fc:	48 c1 e3 09                     shl rbx, 0x9
  413400:	31 d2                           xor edx, edx
  413402:	eb b4                           jmp 0x4133b8

  413404:	0f 1f 40 bb                     jlp		<=
  413408:	48 63 f8                        movsxd rdi, eax
  41340b:	31 d2                           xor edx, edx
  41340d:	48 c7 c0 ff ff ff ff            mov rax, 0xffffffffffffffff
  413414:	48 f7 f7                        div rdi
  413417:	be 07 00 00 00                  mov esi, 0x7
  41341c:	31 d2                           xor edx, edx
  41341e:	eb 0f                           jmp 0x41342f

  413443:	0f 1f 40 bb                     jlp		<=
  413447:	48 63 f8                        movsxd rdi, eax
  41344a:	31 d2                           xor edx, edx
  41344c:	48 c7 c0 ff ff ff ff            mov rax, 0xffffffffffffffff
  413453:	48 f7 f7                        div rdi
  413456:	be 08 00 00 00                  mov esi, 0x8
  41345b:	31 d2                           xor edx, edx
  41345d:	eb 13                           jmp 0x413472

  4134bd:	0f 1f 40 bb                     jlp		<=
  4134c1:	48 63 f0                        movsxd rsi, eax
  4134c4:	31 d2                           xor edx, edx
  4134c6:	48 c7 c0 ff ff ff ff            mov rax, 0xffffffffffffffff
  4134cd:	48 f7 f6                        div rsi
  4134d0:	bf 05 00 00 00                  mov edi, 0x5
  4134d5:	31 d2                           xor edx, edx
  4134d7:	eb 13                           jmp 0x4134ec

  41355f:	0f 1f 40 bb                     jlp		<=
  413563:	48 63 f8                        movsxd rdi, eax
  413566:	31 d2                           xor edx, edx
  413568:	48 c7 c0 ff ff ff ff            mov rax, 0xffffffffffffffff
  41356f:	48 f7 f7                        div rdi
  413572:	be 06 00 00 00                  mov esi, 0x6
  413577:	31 d2                           xor edx, edx
  413579:	eb 13                           jmp 0x41358e

  4135a2:	0f 1f 40 bb                     jlp		<=
  4135a6:	48 b8 ff ff ff ff ff ff 3f 00   mov rax, 0x3fffffffffffff
  4135b0:	48 39 c3                        cmp rbx, rax
  4135b3:	77 79                           ja 0x41362e
  4135b5:	48 c1 e3 0a                     shl rbx, 0xa
  4135b9:	31 d2                           xor edx, edx
  4135bb:	e9 f8 fd ff ff                  jmp 0x4133b8

  4136e7:	0f 1f 40 cc                     rlp		<=
  4136eb:	e8 70 ec fe ff                  call 0x402360
  4136f0:	be d0 d0 41 00                  mov esi, 0x41d0d0
  4136f5:	eb b7                           jmp 0x4136ae

  41375e:	0f 1f 40 cc                     rlp		<=
  413762:	48 8b 10                        mov rdx, [rax]
  413765:	48 89 e8                        mov rax, rbp
  413768:	eb 0d                           jmp 0x413777

  4138c2:	0f 1f 40 cc                     rlp		<=
  4138c6:	48 85 c0                        test rax, rax
  4138c9:	8b 54 24 08                     mov edx, [rsp+0x8]
  4138cd:	0f 85 6d ff ff ff               jnz 0x413840
  4138d3:	e9 b0 fe ff ff                  jmp 0x413788

  4138e0:	0f 1f 40 bb                     jlp		<=
  4138e4:	89 e8                           mov eax, ebp
  4138e6:	49 89 5d 00                     mov [r13], rbx
  4138ea:	83 c8 02                        or eax, 0x2
  4138ed:	e9 9b fe ff ff                  jmp 0x41378d

  4138f2:	0f 1f 40 bb                     jlp		<=
  4138f6:	31 d2                           xor edx, edx
  4138f8:	09 d5                           or ebp, edx
  4138fa:	49 01 ce                        add r14, rcx
  4138fd:	89 e8                           mov eax, ebp
  4138ff:	4d 89 37                        mov [r15], r14
  413902:	83 c8 02                        or eax, 0x2
  413905:	41 80 3e 00                     cmp byte [r14], 0x0
  413909:	0f 45 e8                        cmovnz ebp, eax
  41390c:	e9 e1 fe ff ff                  jmp 0x4137f2

  413911:	0f 1f 40 bb                     jlp		<=
  413915:	48 85 db                        test rbx, rbx
  413918:	0f 88 50 02 00 00               js 0x413b6e
  41391e:	48 01 db                        add rbx, rbx
  413921:	31 d2                           xor edx, edx
  413923:	eb d3                           jmp 0x4138f8

  413925:	0f 1f 40 bb                     jlp		<=
  413929:	48 b8 ff ff ff ff ff ff 7f 00   mov rax, 0x7fffffffffffff
  413933:	48 39 c3                        cmp rbx, rax
  413936:	0f 87 32 02 00 00               ja 0x413b6e
  41393c:	48 c1 e3 09                     shl rbx, 0x9
  413940:	31 d2                           xor edx, edx
  413942:	eb b4                           jmp 0x4138f8

  413944:	0f 1f 40 bb                     jlp		<=
  413948:	48 63 f8                        movsxd rdi, eax
  41394b:	31 d2                           xor edx, edx
  41394d:	48 c7 c0 ff ff ff ff            mov rax, 0xffffffffffffffff
  413954:	48 f7 f7                        div rdi
  413957:	be 07 00 00 00                  mov esi, 0x7
  41395c:	31 d2                           xor edx, edx
  41395e:	eb 0f                           jmp 0x41396f

  413983:	0f 1f 40 bb                     jlp		<=
  413987:	48 63 f8                        movsxd rdi, eax
  41398a:	31 d2                           xor edx, edx
  41398c:	48 c7 c0 ff ff ff ff            mov rax, 0xffffffffffffffff
  413993:	48 f7 f7                        div rdi
  413996:	be 08 00 00 00                  mov esi, 0x8
  41399b:	31 d2                           xor edx, edx
  41399d:	eb 13                           jmp 0x4139b2

  4139fd:	0f 1f 40 bb                     jlp		<=
  413a01:	48 63 f0                        movsxd rsi, eax
  413a04:	31 d2                           xor edx, edx
  413a06:	48 c7 c0 ff ff ff ff            mov rax, 0xffffffffffffffff
  413a0d:	48 f7 f6                        div rsi
  413a10:	bf 05 00 00 00                  mov edi, 0x5
  413a15:	31 d2                           xor edx, edx
  413a17:	eb 13                           jmp 0x413a2c

  413a9f:	0f 1f 40 bb                     jlp		<=
  413aa3:	48 63 f8                        movsxd rdi, eax
  413aa6:	31 d2                           xor edx, edx
  413aa8:	48 c7 c0 ff ff ff ff            mov rax, 0xffffffffffffffff
  413aaf:	48 f7 f7                        div rdi
  413ab2:	be 06 00 00 00                  mov esi, 0x6
  413ab7:	31 d2                           xor edx, edx
  413ab9:	eb 13                           jmp 0x413ace

  413ae2:	0f 1f 40 bb                     jlp		<=
  413ae6:	48 b8 ff ff ff ff ff ff 3f 00   mov rax, 0x3fffffffffffff
  413af0:	48 39 c3                        cmp rbx, rax
  413af3:	77 79                           ja 0x413b6e
  413af5:	48 c1 e3 0a                     shl rbx, 0xa
  413af9:	31 d2                           xor edx, edx
  413afb:	e9 f8 fd ff ff                  jmp 0x4138f8

  413c27:	0f 1f 40 cc                     rlp		<=
  413c2b:	48 89 c3                        mov rbx, rax
  413c2e:	eb a0                           jmp 0x413bd0

  413ca2:	0f 1f 40 cc                     rlp		<=
  413ca6:	48 83 f8 01                     cmp rax, 0x1
  413caa:	19 c0                           sbb eax, eax
  413cac:	83 c8 01                        or eax, 0x1
  413caf:	89 05 43 e8 20 00               mov [rip+0x20e843], eax
  413cb5:	eb 83                           jmp 0x413c3a

  413d3f:	0f 1f 40 cc                     rlp		<=
  413d43:	48 89 c3                        mov rbx, rax
  413d46:	eb 98                           jmp 0x413ce0

  413dca:	0f 1f 40 cc                     rlp		<=
  413dce:	48 83 f8 01                     cmp rax, 0x1
  413dd2:	19 c0                           sbb eax, eax
  413dd4:	83 c8 01                        or eax, 0x1
  413dd7:	89 05 1b e7 20 00               mov [rip+0x20e71b], eax
  413ddd:	e9 78 ff ff ff                  jmp 0x413d5a

  413e5f:	0f 1f 40 cc                     rlp		<=
  413e63:	41 89 c4                        mov r12d, eax
  413e66:	41 8d 44 24 df                  lea eax, [r12-0x21]
  413e6b:	83 f8 3b                        cmp eax, 0x3b
  413e6e:	0f 87 1b 02 00 00               ja 0x41408f
  413e74:	ff 24 c5 40 d3 41 00            jmp qword [rax*8+0x41d340]

  413f42:	0f 1f 40 cc                     rlp		<=
  413f46:	44 8b 6c 24 18                  mov r13d, [rsp+0x18]
  413f4b:	49 8d 5e 04                     lea rbx, [r14+0x4]
  413f4f:	41 8b 16                        mov edx, [r14]
  413f52:	44 89 64 24 34                  mov [rsp+0x34], r12d
  413f57:	41 89 c6                        mov r14d, eax
  413f5a:	45 89 fc                        mov r12d, r15d
  413f5d:	41 83 e5 02                     and r13d, 0x2
  413f61:	45 89 ef                        mov r15d, r13d
  413f64:	eb 2c                           jmp 0x413f92

  414058:	0f 1f 40 bb                     jlp		<=
  41405c:	83 7c 24 20 05                  cmp dword [rsp+0x20], 0x5
  414061:	75 2c                           jnz 0x41408f
  414063:	48 3b 6c 24 08                  cmp rbp, [rsp+0x8]
  414068:	0f 84 5a fe ff ff               jz 0x413ec8
  41406e:	83 7d 00 2f                     cmp dword [rbp], 0x2f
  414072:	0f 85 50 fe ff ff               jnz 0x413ec8
  414078:	41 bd 01 00 00 00               mov r13d, 0x1
  41407e:	eb 3f                           jmp 0x4140bf

  4141e7:	0f 1f 40 cc                     rlp		<=
  4141eb:	48 85 c0                        test rax, rax
  4141ee:	0f 95 c0                        setnz al
  4141f1:	0f b6 c0                        movzx eax, al
  4141f4:	e9 d4 fc ff ff                  jmp 0x413ecd

  414339:	0f 1f 40 cc                     rlp		<=
  41433d:	44 8b 6b 04                     mov r13d, [rbx+0x4]
  414341:	48 83 c3 04                     add rbx, 0x4
  414345:	e9 7c fc ff ff                  jmp 0x413fc6

  414372:	0f 1f 40 cc                     rlp		<=
  414376:	48 83 f8 01                     cmp rax, 0x1
  41437a:	19 c0                           sbb eax, eax
  41437c:	83 c8 01                        or eax, 0x1
  41437f:	89 05 73 e1 20 00               mov [rip+0x20e173], eax
  414385:	e9 6a fb ff ff                  jmp 0x413ef4

  414649:	0f 1f 40 cc                     rlp		<=
  41464d:	4c 8b 4c 24 18                  mov r9, [rsp+0x18]
  414652:	89 c3                           mov ebx, eax
  414654:	49 39 ee                        cmp r14, rbp
  414657:	4d 8d 79 fc                     lea r15, [r9-0x4]
  41465b:	0f 86 67 f8 ff ff               jbe 0x413ec8
  414661:	48 89 e8                        mov rax, rbp
  414664:	44 89 ed                        mov ebp, r13d
  414667:	49 89 c5                        mov r13, rax
  41466a:	eb 24                           jmp 0x414690

  4146b4:	0f 1f 40 cc                     rlp		<=
  4146b8:	85 c0                           test eax, eax
  4146ba:	75 c5                           jnz 0x414681
  4146bc:	31 c0                           xor eax, eax
  4146be:	e9 0a f8 ff ff                  jmp 0x413ecd

  414740:	0f 1f 40 cc                     rlp		<=
  414744:	85 c0                           test eax, eax
  414746:	75 d8                           jnz 0x414720
  414748:	31 c0                           xor eax, eax
  41474a:	e9 7e f7 ff ff                  jmp 0x413ecd

  4147a2:	0f 1f 40 cc                     rlp		<=
  4147a6:	85 c0                           test eax, eax
  4147a8:	0f 95 c0                        setnz al
  4147ab:	0f b6 c0                        movzx eax, al
  4147ae:	e9 1a f7 ff ff                  jmp 0x413ecd

  4147fb:	0f 1f 40 cc                     rlp		<=
  4147ff:	85 c0                           test eax, eax
  414801:	48 8b 54 24 38                  mov rdx, [rsp+0x38]
  414806:	75 4a                           jnz 0x414852
  414808:	48 8d 4a 0c                     lea rcx, [rdx+0xc]
  41480c:	8b 52 08                        mov edx, [rdx+0x8]
  41480f:	e9 76 f7 ff ff                  jmp 0x413f8a

  414895:	0f 1f 40 cc                     rlp		<=
  414899:	83 f8 ff                        cmp eax, 0xffffffff
  41489c:	0f 84 8d f7 ff ff               jz 0x41402f
  4148a2:	e9 26 f6 ff ff                  jmp 0x413ecd

  4148d4:	0f 1f 40 cc                     rlp		<=
  4148d8:	83 f8 ff                        cmp eax, 0xffffffff
  4148db:	44 8b 54 24 10                  mov r10d, [rsp+0x10]
  4148e0:	0f 85 e7 f5 ff ff               jnz 0x413ecd
  4148e6:	e9 16 f8 ff ff                  jmp 0x414101

  414916:	0f 1f 40 cc                     rlp		<=
  41491a:	83 f8 ff                        cmp eax, 0xffffffff
  41491d:	0f 84 6c f7 ff ff               jz 0x41408f
  414923:	e9 a5 f5 ff ff                  jmp 0x413ecd

  41499d:	0f 1f 40 cc                     rlp		<=
  4149a1:	48 8b 00                        mov rax, [rax]
  4149a4:	0f b6 2c a8                     movzx ebp, byte [rax+rbp*4]
  4149a8:	8d 45 df                        lea eax, [rbp-0x21]
  4149ab:	3c 3b                           cmp al, 0x3b
  4149ad:	0f 87 4f 02 00 00               ja 0x414c02
  4149b3:	0f b6 c0                        movzx eax, al
  4149b6:	ff 24 c5 20 d5 41 00            jmp qword [rax*8+0x41d520]

  4149ef:	0f 1f 40 cc                     rlp		<=
  4149f3:	48 3b 5c 24 08                  cmp rbx, [rsp+0x8]
  4149f8:	48 8b 10                        mov rdx, [rax]
  4149fb:	8b 04 aa                        mov eax, [rdx+rbp*4]
  4149fe:	0f 84 64 02 00 00               jz 0x414c68
  414a04:	0f b6 c0                        movzx eax, al
  414a07:	4d 89 f7                        mov r15, r14
  414a0a:	e9 c5 03 00 00                  jmp 0x414dd4

  414bc0:	0f 1f 40 bb                     jlp		<=
  414bc4:	83 7c 24 30 05                  cmp dword [rsp+0x30], 0x5
  414bc9:	75 37                           jnz 0x414c02
  414bcb:	48 3b 5c 24 08                  cmp rbx, [rsp+0x8]
  414bd0:	0f 84 92 00 00 00               jz 0x414c68
  414bd6:	80 3b 2f                        cmp byte [rbx], 0x2f
  414bd9:	0f 85 89 00 00 00               jnz 0x414c68
  414bdf:	4d 89 ef                        mov r15, r13
  414be2:	c6 44 24 10 01                  mov byte [rsp+0x10], 0x1
  414be7:	eb 4b                           jmp 0x414c34

  414d72:	0f 1f 40 cc                     rlp		<=
  414d76:	48 85 c0                        test rax, rax
  414d79:	0f 95 c0                        setnz al
  414d7c:	0f b6 c0                        movzx eax, al
  414d7f:	e9 e9 fe ff ff                  jmp 0x414c6d

  414dc5:	0f 1f 40 cc                     rlp		<=
  414dc9:	4d 89 ef                        mov r15, r13
  414dcc:	48 8b 10                        mov rdx, [rax]
  414dcf:	b8 5c 00 00 00                  mov eax, 0x5c
  414dd4:	0f b6 0b                        movzx ecx, byte [rbx]
  414dd7:	8b 14 8a                        mov edx, [rdx+rcx*4]
  414dda:	eb c7                           jmp 0x414da3

  414f01:	0f 1f 40 cc                     rlp		<=
  414f05:	48 8b 00                        mov rax, [rax]
  414f08:	0f b6 f3                        movzx esi, bl
  414f0b:	0f b6 1c b0                     movzx ebx, byte [rax+rsi*4]
  414f0f:	44 0f b6 6d 01                  movzx r13d, byte [rbp+0x1]
  414f14:	48 83 c5 01                     add rbp, 0x1
  414f18:	e9 f8 fb ff ff                  jmp 0x414b15

  414f3a:	0f 1f 40 cc                     rlp		<=
  414f3e:	48 83 f8 01                     cmp rax, 0x1
  414f42:	19 c0                           sbb eax, eax
  414f44:	83 c8 01                        or eax, 0x1
  414f47:	89 05 ab d5 20 00               mov [rip+0x20d5ab], eax
  414f4d:	e9 d0 fa ff ff                  jmp 0x414a22

  41513c:	0f 1f 40 cc                     rlp		<=
  415140:	85 c0                           test eax, eax
  415142:	0f 85 99 02 00 00               jnz 0x4153e1
  415148:	4d 8d 4d 04                     lea r9, [r13+0x4]
  41514c:	0f b6 43 02                     movzx eax, byte [rbx+0x2]
  415150:	e9 75 f9 ff ff                  jmp 0x414aca

  41529e:	0f 1f 40 cc                     rlp		<=
  4152a2:	85 c0                           test eax, eax
  4152a4:	75 c3                           jnz 0x415269
  4152a6:	31 c0                           xor eax, eax
  4152a8:	e9 c0 f9 ff ff                  jmp 0x414c6d

  415328:	0f 1f 40 cc                     rlp		<=
  41532c:	85 c0                           test eax, eax
  41532e:	75 d8                           jnz 0x415308
  415330:	31 c0                           xor eax, eax
  415332:	e9 36 f9 ff ff                  jmp 0x414c6d

  41537f:	0f 1f 40 cc                     rlp		<=
  415383:	85 c0                           test eax, eax
  415385:	0f 95 c0                        setnz al
  415388:	0f b6 c0                        movzx eax, al
  41538b:	e9 dd f8 ff ff                  jmp 0x414c6d

  415427:	0f 1f 40 cc                     rlp		<=
  41542b:	83 f8 ff                        cmp eax, 0xffffffff
  41542e:	44 8b 54 24 20                  mov r10d, [rsp+0x20]
  415433:	0f 85 34 f8 ff ff               jnz 0x414c6d
  415439:	e9 68 f8 ff ff                  jmp 0x414ca6

  415468:	0f 1f 40 cc                     rlp		<=
  41546c:	83 f8 ff                        cmp eax, 0xffffffff
  41546f:	0f 84 8d f7 ff ff               jz 0x414c02
  415475:	e9 f3 f7 ff ff                  jmp 0x414c6d

  4154a6:	0f 1f 40 cc                     rlp		<=
  4154aa:	83 f8 ff                        cmp eax, 0xffffffff
  4154ad:	0f 84 e5 f6 ff ff               jz 0x414b98
  4154b3:	e9 b5 f7 ff ff                  jmp 0x414c6d

  41551b:	0f 1f 40 cc                     rlp		<=
  41551f:	48 8d 65 d8                     lea rsp, [rbp-0x28]
  415523:	5b                              pop rbx
  415524:	41 5c                           pop r12
  415526:	41 5d                           pop r13
  415528:	41 5e                           pop r14
  41552a:	41 5f                           pop r15
  41552c:	5d                              pop rbp
  41552d:	c3                              ret

  41564c:	0f 1f 40 cc                     rlp		<=
  415650:	49 81 fe cf 07 00 00            cmp r14, 0x7cf
  415657:	0f 86 c2 fe ff ff               jbe 0x41551f
  41565d:	48 89 df                        mov rdi, rbx
  415660:	89 45 a8                        mov [rbp-0x58], eax
  415663:	e8 98 cc fe ff                  call 0x402300
  415668:	0f 1f 40 cc                     rlp		<=
  41566c:	8b 45 a8                        mov eax, [rbp-0x58]
  41566f:	e9 ab fe ff ff                  jmp 0x41551f

  4156b3:	0f 1f 40 cc                     rlp		<=
  4156b7:	48 85 c0                        test rax, rax
  4156ba:	48 89 c3                        mov rbx, rax
  4156bd:	0f 85 22 ff ff ff               jnz 0x4155e5
  4156c3:	e8 b8 cc fe ff                  call 0x402380
  4156c8:	0f 1f 40 cc                     rlp		<=
  4156cc:	c7 00 0c 00 00 00               mov dword [rax], 0xc
  4156d2:	83 c8 ff                        or eax, 0xffffffff
  4156d5:	e9 45 fe ff ff                  jmp 0x41551f

  415ada:	0f 1f 40 cc                     rlp		<=
  415ade:	48 85 c0                        test rax, rax
  415ae1:	0f 95 c0                        setnz al
  415ae4:	0f b6 c0                        movzx eax, al
  415ae7:	e9 9d fd ff ff                  jmp 0x415889

  415d31:	0f 1f 40 cc                     rlp		<=
  415d35:	41 8b 0f                        mov ecx, [r15]
  415d38:	41 39 cc                        cmp r12d, ecx
  415d3b:	0f 8e 16 05 00 00               jle 0x416257
  415d41:	48 8b 7c 24 20                  mov rdi, [rsp+0x20]
  415d46:	48 63 c1                        movsxd rax, ecx
  415d49:	48 8d 14 c7                     lea rdx, [rdi+rax*8]
  415d4d:	89 c8                           mov eax, ecx
  415d4f:	eb 16                           jmp 0x415d67

  415ee9:	0f 1f 40 cc                     rlp		<=
  415eed:	48 01 c5                        add rbp, rax
  415ef0:	8b 43 18                        mov eax, [rbx+0x18]
  415ef3:	49 89 6f 20                     mov [r15+0x20], rbp
  415ef7:	41 89 47 08                     mov [r15+0x8], eax
  415efb:	b8 3f 00 00 00                  mov eax, 0x3f
  415f00:	e9 ba fb ff ff                  jmp 0x415abf

  415f53:	0f 1f 40 cc                     rlp		<=
  415f57:	48 8b 44 24 30                  mov rax, [rsp+0x30]
  415f5c:	eb 05                           jmp 0x415f63

  415f9c:	0f 1f 40 cc                     rlp		<=
  415fa0:	41 8b 07                        mov eax, [r15]
  415fa3:	4d 8b 77 20                     mov r14, [r15+0x20]
  415fa7:	89 44 24 58                     mov [rsp+0x58], eax
  415fab:	e9 16 fd ff ff                  jmp 0x415cc6

  416105:	0f 1f 40 cc                     rlp		<=
  416109:	48 39 44 24 28                  cmp [rsp+0x28], rax
  41610e:	0f 84 6c 04 00 00               jz 0x416580
  416114:	4d 85 ed                        test r13, r13
  416117:	75 9d                           jnz 0x4160b6
  416119:	44 89 74 24 58                  mov [rsp+0x58], r14d
  41611e:	49 89 dd                        mov r13, rbx
  416121:	eb b0                           jmp 0x4160d3

  41620f:	0f 1f 40 cc                     rlp		<=
  416213:	41 8b 07                        mov eax, [r15]
  416216:	89 44 24 58                     mov [rsp+0x58], eax
  41621a:	49 c7 47 20 44 d7 41 00         mov qword [r15+0x20], 0x41d744
  416222:	e9 b2 fa ff ff                  jmp 0x415cd9

  4162c8:	0f 1f 40 cc                     rlp		<=
  4162cc:	48 01 c5                        add rbp, rax
  4162cf:	8b 43 18                        mov eax, [rbx+0x18]
  4162d2:	49 89 6f 20                     mov [r15+0x20], rbp
  4162d6:	41 89 47 08                     mov [r15+0x8], eax
  4162da:	48 8b 44 24 10                  mov rax, [rsp+0x10]
  4162df:	80 38 3a                        cmp byte [rax], 0x3a
  4162e2:	0f 85 03 fa ff ff               jnz 0x415ceb
  4162e8:	b8 3a 00 00 00                  mov eax, 0x3a
  4162ed:	e9 cd f7 ff ff                  jmp 0x415abf

  41631b:	0f 1f 40 cc                     rlp		<=
  41631f:	48 85 c0                        test rax, rax
  416322:	0f 85 05 f6 ff ff               jnz 0x41592d
  416328:	e9 7d fe ff ff                  jmp 0x4161aa

  416344:	0f 1f 40 cc                     rlp		<=
  416348:	48 8b 3d 91 b4 20 00            mov rdi, [rip+0x20b491]
  41634f:	48 89 c2                        mov rdx, rax
  416352:	4d 89 e0                        mov r8, r12
  416355:	48 89 e9                        mov rcx, rbp
  416358:	be 01 00 00 00                  mov esi, 0x1
  41635d:	31 c0                           xor eax, eax
  41635f:	e8 9c cb fe ff                  call 0x402f00
  416364:	0f 1f 40 cc                     rlp		<=
  416368:	e9 70 fb ff ff                  jmp 0x415edd

  4163e6:	0f 1f 40 cc                     rlp		<=
  4163ea:	49 01 c5                        add r13, rax
  4163ed:	41 83 07 01                     add dword [r15], 0x1
  4163f1:	b8 3f 00 00 00                  mov eax, 0x3f
  4163f6:	4d 89 6f 20                     mov [r15+0x20], r13
  4163fa:	e9 c0 f6 ff ff                  jmp 0x415abf

  4164ce:	0f 1f 40 cc                     rlp		<=
  4164d2:	41 8b 07                        mov eax, [r15]
  4164d5:	89 44 24 58                     mov [rsp+0x58], eax
  4164d9:	e9 3c fd ff ff                  jmp 0x41621a

  4164fa:	0f 1f 40 cc                     rlp		<=
  4164fe:	48 8b 3d db b2 20 00            mov rdi, [rip+0x20b2db]
  416505:	48 89 c2                        mov rdx, rax
  416508:	4d 89 e0                        mov r8, r12
  41650b:	48 89 e9                        mov rcx, rbp
  41650e:	be 01 00 00 00                  mov esi, 0x1
  416513:	31 c0                           xor eax, eax
  416515:	e8 e6 c9 fe ff                  call 0x402f00
  41651a:	0f 1f 40 cc                     rlp		<=
  41651e:	e9 99 fd ff ff                  jmp 0x4162bc

  4165c1:	0f 1f 40 cc                     rlp		<=
  4165c5:	48 8b 3d 14 b2 20 00            mov rdi, [rip+0x20b214]
  4165cc:	48 89 c2                        mov rdx, rax
  4165cf:	41 89 d8                        mov r8d, ebx
  4165d2:	48 89 e9                        mov rcx, rbp
  4165d5:	be 01 00 00 00                  mov esi, 0x1
  4165da:	31 c0                           xor eax, eax
  4165dc:	e8 1f c9 fe ff                  call 0x402f00
  4165e1:	0f 1f 40 cc                     rlp		<=
  4165e5:	e9 91 fe ff ff                  jmp 0x41647b

  41673d:	0f 1f 40 cc                     rlp		<=
  416741:	48 8b 3d 98 b0 20 00            mov rdi, [rip+0x20b098]
  416748:	48 89 c2                        mov rdx, rax
  41674b:	49 89 e8                        mov r8, rbp
  41674e:	48 89 d9                        mov rcx, rbx
  416751:	be 01 00 00 00                  mov esi, 0x1
  416756:	31 c0                           xor eax, eax
  416758:	e8 a3 c7 fe ff                  call 0x402f00
  41675d:	0f 1f 40 cc                     rlp		<=
  416761:	e9 f2 fd ff ff                  jmp 0x416558

  41678c:	0f 1f 40 cc                     rlp		<=
  416790:	48 8b 3d 49 b0 20 00            mov rdi, [rip+0x20b049]
  416797:	48 89 c2                        mov rdx, rax
  41679a:	41 89 d8                        mov r8d, ebx
  41679d:	48 89 e9                        mov rcx, rbp
  4167a0:	be 01 00 00 00                  mov esi, 0x1
  4167a5:	31 c0                           xor eax, eax
  4167a7:	e8 54 c7 fe ff                  call 0x402f00
  4167ac:	0f 1f 40 cc                     rlp		<=
  4167b0:	e9 40 fe ff ff                  jmp 0x4165f5

  4167f5:	0f 1f 40 cc                     rlp		<=
  4167f9:	8b 15 01 bd 20 00               mov edx, [rip+0x20bd01]
  4167ff:	89 15 b7 af 20 00               mov [rip+0x20afb7], edx
  416805:	48 8b 15 04 bd 20 00            mov rdx, [rip+0x20bd04]
  41680c:	48 89 15 35 bd 20 00            mov [rip+0x20bd35], rdx
  416813:	8b 15 ef bc 20 00               mov edx, [rip+0x20bcef]
  416819:	89 15 95 af 20 00               mov [rip+0x20af95], edx
  41681f:	48 83 c4 18                     add rsp, 0x18
  416823:	c3                              ret

  416830:	0f 1f 40 aa                     clp		<=
  416834:	48 83 ec 18                     sub rsp, 0x18
  416838:	45 31 c9                        xor r9d, r9d
  41683b:	45 31 c0                        xor r8d, r8d
  41683e:	c7 04 24 01 00 00 00            mov dword [rsp], 0x1
  416845:	31 c9                           xor ecx, ecx
  416847:	e8 74 ff ff ff                  call 0x4167c0
  41684c:	0f 1f 40 cc                     rlp		<=
  416850:	48 83 c4 18                     add rsp, 0x18
  416854:	c3                              ret

  416860:	0f 1f 40 aa                     clp		<=
  416864:	48 83 ec 18                     sub rsp, 0x18
  416868:	45 31 c9                        xor r9d, r9d
  41686b:	c7 04 24 00 00 00 00            mov dword [rsp], 0x0
  416872:	e8 49 ff ff ff                  call 0x4167c0
  416877:	0f 1f 40 cc                     rlp		<=
  41687b:	48 83 c4 18                     add rsp, 0x18
  41687f:	c3                              ret

  416880:	0f 1f 40 aa                     clp		<=
  416884:	48 83 ec 18                     sub rsp, 0x18
  416888:	4c 89 0c 24                     mov [rsp], r9
  41688c:	c7 44 24 08 00 00 00 00         mov dword [rsp+0x8], 0x0
  416894:	45 31 c9                        xor r9d, r9d
  416897:	e8 64 ef ff ff                  call 0x415800
  41689c:	0f 1f 40 cc                     rlp		<=
  4168a0:	48 83 c4 18                     add rsp, 0x18
  4168a4:	c3                              ret

  4168b0:	0f 1f 40 aa                     clp		<=
  4168b4:	48 83 ec 18                     sub rsp, 0x18
  4168b8:	41 b9 01 00 00 00               mov r9d, 0x1
  4168be:	c7 04 24 00 00 00 00            mov dword [rsp], 0x0
  4168c5:	e8 f6 fe ff ff                  call 0x4167c0
  4168ca:	0f 1f 40 cc                     rlp		<=
  4168ce:	48 83 c4 18                     add rsp, 0x18
  4168d2:	c3                              ret

  4168e0:	0f 1f 40 aa                     clp		<=
  4168e4:	48 83 ec 18                     sub rsp, 0x18
  4168e8:	4c 89 0c 24                     mov [rsp], r9
  4168ec:	c7 44 24 08 00 00 00 00         mov dword [rsp+0x8], 0x0
  4168f4:	41 b9 01 00 00 00               mov r9d, 0x1
  4168fa:	e8 01 ef ff ff                  call 0x415800
  4168ff:	0f 1f 40 cc                     rlp		<=
  416903:	48 83 c4 18                     add rsp, 0x18
  416907:	c3                              ret

  416910:	0f 1f 40 aa                     clp		<=
  416914:	48 85 d2                        test rdx, rdx
  416917:	41 89 f0                        mov r8d, esi
  41691a:	74 29                           jz 0x416945
  41691c:	40 f6 c7 07                     test dil, 0x7
  416920:	74 36                           jz 0x416958
  416922:	40 38 37                        cmp [rdi], sil
  416925:	75 14                           jnz 0x41693b
  416927:	eb 27                           jmp 0x416950

  416bc6:	0f 1f 40 cc                     rlp		<=
  416bca:	48 85 c0                        test rax, rax
  416bcd:	75 b9                           jnz 0x416b88
  416bcf:	eb ac                           jmp 0x416b7d

  416bf3:	0f 1f 40 cc                     rlp		<=
  416bf7:	e9 61 ff ff ff                  jmp 0x416b5d

  416e13:	0f 1f 40 cc                     rlp		<=
  416e17:	49 89 c7                        mov r15, rax
  416e1a:	48 89 44 24 60                  mov [rsp+0x60], rax
  416e1f:	48 89 84 24 80 00 00 00         mov [rsp+0x80], rax
  416e27:	48 89 44 24 78                  mov [rsp+0x78], rax
  416e2c:	31 c0                           xor eax, eax
  416e2e:	4c 89 6c 24 68                  mov [rsp+0x68], r13
  416e33:	4d 89 fd                        mov r13, r15
  416e36:	41 89 c7                        mov r15d, eax
  416e39:	eb 33                           jmp 0x416e6e

  417104:	0f 1f 40 cc                     rlp		<=
  417108:	8b 84 24 f0 00 00 00            mov eax, [rsp+0xf0]
  41710f:	85 c0                           test eax, eax
  417111:	0f 94 c2                        setz dl
  417114:	3a 54 24 68                     cmp dl, [rsp+0x68]
  417118:	74 16                           jz 0x417130
  41711a:	85 c0                           test eax, eax
  41711c:	78 12                           js 0x417130
  41711e:	48 8b 44 24 78                  mov rax, [rsp+0x78]
  417123:	e9 78 ff ff ff                  jmp 0x4170a0

  417161:	0f 1f 40 cc                     rlp		<=
  417165:	48 8b 7c 24 38                  mov rdi, [rsp+0x38]
  41716a:	48 8d 94 24 90 00 00 00         lea rdx, [rsp+0x90]
  417172:	48 8d 74 24 78                  lea rsi, [rsp+0x78]
  417177:	48 89 44 24 78                  mov [rsp+0x78], rax
  41717c:	e8 af f9 ff ff                  call 0x416b30
  417181:	0f 1f 40 cc                     rlp		<=
  417185:	48 8b 44 24 78                  mov rax, [rsp+0x78]
  41718a:	e9 81 fd ff ff                  jmp 0x416f10

  417190:	0f 1f 40 aa                     clp		<=
  417194:	48 83 ec 08                     sub rsp, 0x8
  417198:	ba 38 25 62 00                  mov edx, 0x622538
  41719d:	be c0 23 40 00                  mov esi, 0x4023c0
  4171a2:	e8 19 fb ff ff                  call 0x416cc0
  4171a7:	0f 1f 40 cc                     rlp		<=
  4171ab:	48 83 c4 08                     add rsp, 0x8
  4171af:	c3                              ret

  417647:	0f 1f 40 cc                     rlp		<=
  41764b:	48 89 44 24 08                  mov [rsp+0x8], rax
  417650:	48 8b 44 24 48                  mov rax, [rsp+0x48]
  417655:	48 89 44 24 20                  mov [rsp+0x20], rax
  41765a:	e9 c7 fc ff ff                  jmp 0x417326

  417743:	0f 1f 40 cc                     rlp		<=
  417747:	48 83 c4 48                     add rsp, 0x48
  41774b:	5b                              pop rbx
  41774c:	5d                              pop rbp
  41774d:	41 5c                           pop r12
  41774f:	41 5d                           pop r13
  417751:	41 5e                           pop r14
  417753:	41 5f                           pop r15
  417755:	c3                              ret

  417a22:	0f 1f 40 cc                     rlp		<=
  417a26:	49 89 c7                        mov r15, rax
  417a29:	48 8b 44 24 38                  mov rax, [rsp+0x38]
  417a2e:	4c 8b 44 24 08                  mov r8, [rsp+0x8]
  417a33:	48 89 44 24 10                  mov [rsp+0x10], rax
  417a38:	e9 73 fd ff ff                  jmp 0x4177b0

  417aae:	0f 1f 40 cc                     rlp		<=
  417ab2:	c7 00 00 00 00 00               mov dword [rax], 0x0
  417ab8:	89 d8                           mov eax, ebx
  417aba:	5b                              pop rbx
  417abb:	5d                              pop rbp
  417abc:	41 5c                           pop r12
  417abe:	c3                              ret

  417ac5:	0f 1f 40 cc                     rlp		<=
  417ac9:	83 38 09                        cmp dword [rax], 0x9
  417acc:	74 c2                           jz 0x417a90
  417ace:	bb ff ff ff ff                  mov ebx, 0xffffffff
  417ad3:	eb bb                           jmp 0x417a90

  417aff:	0f 1f 40 cc                     rlp		<=
  417b03:	4c 8b 35 36 aa 20 00            mov r14, [rip+0x20aa36]
  417b0a:	48 85 c0                        test rax, rax
  417b0d:	48 89 c3                        mov rbx, rax
  417b10:	b8 44 d7 41 00                  mov eax, 0x41d744
  417b15:	48 0f 44 d8                     cmovz rbx, rax
  417b19:	4d 85 f6                        test r14, r14
  417b1c:	75 24                           jnz 0x417b42
  417b1e:	eb 7d                           jmp 0x417b9d

  417dfd:	0f 1f 40 cc                     rlp		<=
  417e01:	83 f8 ff                        cmp eax, 0xffffffff
  417e04:	89 c7                           mov edi, eax
  417e06:	0f 84 90 00 00 00               jz 0x417e9c
  417e0c:	e9 98 fe ff ff                  jmp 0x417ca9

  417e20:	0f 1f 40 cc                     rlp		<=
  417e24:	41 be 44 d7 41 00               mov r14d, 0x41d744
  417e2a:	48 89 ef                        mov rdi, rbp
  417e2d:	e8 ce a4 fe ff                  call 0x402300
  417e32:	0f 1f 40 cc                     rlp		<=
  417e36:	4c 89 35 03 a7 20 00            mov [rip+0x20a703], r14
  417e3d:	e9 00 fd ff ff                  jmp 0x417b42

  417e5a:	0f 1f 40 cc                     rlp		<=
  417e5e:	48 85 c0                        test rax, rax
  417e61:	49 89 c4                        mov r12, rax
  417e64:	74 dc                           jz 0x417e42
  417e66:	48 8d 40 ff                     lea rax, [rax-0x1]
  417e6a:	e9 5e fd ff ff                  jmp 0x417bcd

  417ea4:	0f 1f 40 cc                     rlp		<=
  417ea8:	48 8b 44 24 08                  mov rax, [rsp+0x8]
  417ead:	48 85 c0                        test rax, rax
  417eb0:	0f 84 6e ff ff ff               jz 0x417e24
  417eb6:	41 c6 04 06 00                  mov byte [r14+rax], 0x0
  417ebb:	e9 6a ff ff ff                  jmp 0x417e2a

  417ee4:	0f 1f 40 cc                     rlp		<=
  417ee8:	4c 8b 54 24 18                  mov r10, [rsp+0x18]
  417eed:	49 89 c5                        mov r13, rax
  417ef0:	48 8b 54 24 10                  mov rdx, [rsp+0x10]
  417ef5:	e9 aa fe ff ff                  jmp 0x417da4

  417f13:	0f 1f 40 cc                     rlp		<=
  417f17:	4c 89 ff                        mov rdi, r15
  417f1a:	e8 21 00 00 00                  call 0x417f40
  417f1f:	0f 1f 40 cc                     rlp		<=
  417f23:	e9 02 ff ff ff                  jmp 0x417e2a

  417f30:	0f 1f 40 cc                     rlp		<=
  417f34:	e9 55 ff ff ff                  jmp 0x417e8e

  417f8f:	0f 1f 40 cc                     rlp		<=
  417f93:	45 85 e4                        test r12d, r12d
  417f96:	74 48                           jz 0x417fe0
  417f98:	44 89 65 00                     mov [rbp], r12d
  417f9c:	b8 ff ff ff ff                  mov eax, 0xffffffff
  417fa1:	5b                              pop rbx
  417fa2:	5d                              pop rbp
  417fa3:	41 5c                           pop r12
  417fa5:	c3                              ret

  417fdc:	0f 1f 40 cc                     rlp		<=
  417fe0:	5b                              pop rbx
  417fe1:	5d                              pop rbp
  417fe2:	41 5c                           pop r12
  417fe4:	c3                              ret

  418002:	0f 1f 40 cc                     rlp		<=
  418006:	85 c0                           test eax, eax
  418008:	75 16                           jnz 0x418020
  41800a:	48 89 df                        mov rdi, rbx
  41800d:	e8 2e ab fe ff                  call 0x402b40
  418012:	0f 1f 40 cc                     rlp		<=
  418016:	5b                              pop rbx
  418017:	c3                              ret

  418037:	0f 1f 40 cc                     rlp		<=
  41803b:	48 89 df                        mov rdi, rbx
  41803e:	e8 fd aa fe ff                  call 0x402b40
  418043:	0f 1f 40 cc                     rlp		<=
  418047:	5b                              pop rbx
  418048:	c3                              ret

  41806e:	0f 1f 40 cc                     rlp		<=
  418072:	48 83 c4 10                     add rsp, 0x10
  418076:	5b                              pop rbx
  418077:	c3                              ret

  4180b1:	0f 1f 40 cc                     rlp		<=
  4180b5:	48 83 f8 ff                     cmp rax, 0xffffffffffffffff
  4180b9:	74 b7                           jz 0x418072
  4180bb:	48 89 83 90 00 00 00            mov [rbx+0x90], rax
  4180c2:	83 23 ef                        and dword [rbx], 0xffffffef
  4180c5:	31 c0                           xor eax, eax
  4180c7:	eb a9                           jmp 0x418072

  418107:	0f 1f 40 cc                     rlp		<=
  41810b:	48 85 ed                        test rbp, rbp
  41810e:	74 1a                           jz 0x41812a
  418110:	4c 89 ea                        mov rdx, r13
  418113:	4c 89 f6                        mov rsi, r14
  418116:	44 89 ff                        mov edi, r15d
  418119:	41 ff 14 dc                     call qword [r12+rbx*8]

  418140:	0f 1f 40 aa                     clp		<=
  418144:	c3                              ret

  41816e:	0f 1f 40 cc                     rlp		<=
  418172:	48 83 c4 08                     add rsp, 0x8
  418176:	c3                              ret

  41817b:	0f 1f 40 aa                     clp		<=
  41817f:	55                              push rbp
  418180:	48 89 e5                        mov rbp, rsp
  418183:	53                              push rbx
  418184:	bb 00 10 62 00                  mov ebx, 0x621000
  418189:	52                              push rdx
  41818a:	48 8b 03                        mov rax, [rbx]
  41818d:	48 83 f8 ff                     cmp rax, 0xffffffffffffffff
  418191:	74 0c                           jz 0x41819f
  418193:	ff d0                           call rax

  418195:	0f 1f 40 cc                     rlp		<=
  418199:	48 83 eb 08                     sub rbx, 0x8
  41819d:	eb eb                           jmp 0x41818a

./exesections/4181a4-.fini: 4181a4
**********************************************************
  4181a4:	0f 1f 40 aa                     clp		<=
  4181a8:	48 83 ec 08                     sub rsp, 0x8
  4181ac:	e8 3f dd fe ff                  call 0x405ef0
  4181b1:	0f 1f 40 cc                     rlp		<=
  4181b5:	48 83 c4 08                     add rsp, 0x8
  4181b9:	c3                              ret


Totally 831 gadgets.
